Archive member included to satisfy reference by file (symbol)

/usr/lib/gcc/arm-linux-gnueabihf/4.9/libgcc.a(_udivsi3.o)
                              arch/arm/cpu/armv7/built-in.o (__aeabi_uidiv)
/usr/lib/gcc/arm-linux-gnueabihf/4.9/libgcc.a(_divsi3.o)
                              arch/arm/cpu/armv7/built-in.o (__aeabi_idiv)
/usr/lib/gcc/arm-linux-gnueabihf/4.9/libgcc.a(_lshrdi3.o)
                              fs/built-in.o (__aeabi_llsr)
/usr/lib/gcc/arm-linux-gnueabihf/4.9/libgcc.a(_ashldi3.o)
                              drivers/mmc/built-in.o (__aeabi_llsl)
/usr/lib/gcc/arm-linux-gnueabihf/4.9/libgcc.a(_dvmd_lnx.o)
                              /usr/lib/gcc/arm-linux-gnueabihf/4.9/libgcc.a(_udivsi3.o) (__aeabi_idiv0)

Discarded input sections

 .data          0x0000000000000000        0x0 arch/arm/cpu/armv7/start.o
 .bss           0x0000000000000000        0x0 arch/arm/cpu/armv7/start.o
 .text.v7_arch_cp15_set_l2aux_ctrl
                0x0000000000000000        0x8 arch/arm/cpu/armv7/built-in.o
 .text.v7_arch_cp15_set_acr
                0x0000000000000000        0x8 arch/arm/cpu/armv7/built-in.o
 .text.sdelay   0x0000000000000000        0xc arch/arm/cpu/armv7/built-in.o
 .text.wait_on_value
                0x0000000000000000       0x34 arch/arm/cpu/armv7/built-in.o
 .text.pmu_prepare_for_s2
                0x0000000000000000       0x48 arch/arm/cpu/armv7/built-in.o
 .text.irq_free_handler
                0x0000000000000000       0x70 arch/arm/cpu/armv7/built-in.o
 .text.irq_printf
                0x0000000000000000       0x44 arch/arm/cpu/armv7/built-in.o
 .text.find_pinctrl_dev_by_name
                0x0000000000000000       0x50 arch/arm/cpu/armv7/built-in.o
 .text.owl_pinctrl_set_function
                0x0000000000000000       0x30 arch/arm/cpu/armv7/built-in.o
 .text.owl_pinctrl_pin_set_configs
                0x0000000000000000       0x38 arch/arm/cpu/armv7/built-in.o
 .text.owl_pinctrl_group_set_configs
                0x0000000000000000       0x38 arch/arm/cpu/armv7/built-in.o
 .text.pinctrl_init_f
                0x0000000000000000      0x12c arch/arm/cpu/armv7/built-in.o
 .text.get_ticks
                0x0000000000000000       0x10 arch/arm/cpu/armv7/built-in.o
 .text.get_tbclk
                0x0000000000000000        0x8 arch/arm/cpu/armv7/built-in.o
 .text.owl_reset_and_enable_clk
                0x0000000000000000       0x2c arch/arm/cpu/armv7/built-in.o
 .text.owl_clk_disable
                0x0000000000000000       0x40 arch/arm/cpu/armv7/built-in.o
 .data          0x0000000000000000        0x0 arch/arm/cpu/armv7/built-in.o
 .bss           0x0000000000000000        0x0 arch/arm/cpu/armv7/built-in.o
 .text.setup_board_tags
                0x0000000000000000        0x4 arch/arm/lib/built-in.o
 .text.flush_cache
                0x0000000000000000        0x4 arch/arm/lib/built-in.o
 .text.flush_dcache_all
                0x0000000000000000        0xc arch/arm/lib/built-in.o
 .text.enable_caches
                0x0000000000000000        0xc arch/arm/lib/built-in.o
 .text.arm_init_before_mmu
                0x0000000000000000        0x4 arch/arm/lib/built-in.o
 .text.mmu_page_table_flush
                0x0000000000000000        0x4 arch/arm/lib/built-in.o
 .text.icache_enable
                0x0000000000000000       0x18 arch/arm/lib/built-in.o
 .text.icache_status
                0x0000000000000000        0xc arch/arm/lib/built-in.o
 .data          0x0000000000000000        0x0 arch/arm/lib/built-in.o
 .__secure_start
                0x0000000000000000        0x0 arch/arm/lib/built-in.o
 .__secure_end  0x0000000000000000        0x0 arch/arm/lib/built-in.o
 .bss           0x0000000000000000        0x0 arch/arm/lib/built-in.o
 .text          0x0000000000000000        0x0 board/actions/owl/built-in.o
 .text.platform_get_lcd_par
                0x0000000000000000       0x2c board/actions/owl/built-in.o
 .text.platform_enable_lcd
                0x0000000000000000       0x3c board/actions/owl/built-in.o
 .text.platform_get_dsi_par
                0x0000000000000000       0x14 board/actions/owl/built-in.o
 .text.platform_enable_dsi
                0x0000000000000000       0x24 board/actions/owl/built-in.o
 .data          0x0000000000000000        0x0 board/actions/owl/built-in.o
 .bss           0x0000000000000000        0x0 board/actions/owl/built-in.o
 .text          0x0000000000000000        0x0 common/built-in.o
 .text.hash_progressive_lookup_algo
                0x0000000000000000       0x60 common/built-in.o
 .text.hash_block
                0x0000000000000000       0x6c common/built-in.o
 .text.unset_local_var
                0x0000000000000000       0xa0 common/built-in.o
 .text.red_led_off
                0x0000000000000000        0x4 common/built-in.o
 .text.green_led_on
                0x0000000000000000        0x4 common/built-in.o
 .text.green_led_off
                0x0000000000000000        0x4 common/built-in.o
 .text.yellow_led_on
                0x0000000000000000        0x4 common/built-in.o
 .text.yellow_led_off
                0x0000000000000000        0x4 common/built-in.o
 .text.blue_led_on
                0x0000000000000000        0x4 common/built-in.o
 .text.blue_led_off
                0x0000000000000000        0x4 common/built-in.o
 .text.arch_reserve_stacks
                0x0000000000000000        0x8 common/built-in.o
 .text.board_init_f_mem
                0x0000000000000000       0x28 common/built-in.o
 .text.board_flash_wp_on
                0x0000000000000000        0x8 common/built-in.o
 .text.fixup_cpu
                0x0000000000000000        0x8 common/built-in.o
 .text.bootz_setup
                0x0000000000000000       0x18 common/built-in.o
 .text.env_flags_parse_varaccess_from_binflags
                0x0000000000000000       0x28 common/built-in.o
 .text.of_bus_default_map
                0x0000000000000000       0xdc common/built-in.o
 .text.fdt_read_prop
                0x0000000000000000       0x64 common/built-in.o
 .text.of_bus_default_count_cells
                0x0000000000000000       0x58 common/built-in.o
 .text.of_bus_default_translate
                0x0000000000000000       0xa0 common/built-in.o
 .text.fdt_getprop_u32_default_node
                0x0000000000000000       0x40 common/built-in.o
 .text.fdt_getprop_u32_default
                0x0000000000000000       0x3c common/built-in.o
 .text.do_fixup_by_path_u32
                0x0000000000000000       0x2c common/built-in.o
 .text.do_fixup_by_prop
                0x0000000000000000       0x94 common/built-in.o
 .text.do_fixup_by_prop_u32
                0x0000000000000000       0x3c common/built-in.o
 .text.do_fixup_by_compat
                0x0000000000000000       0x88 common/built-in.o
 .text.do_fixup_by_compat_u32
                0x0000000000000000       0x2c common/built-in.o
 .text.fdt_increase_size
                0x0000000000000000       0x14 common/built-in.o
 .text.fdt_del_node_and_alias
                0x0000000000000000       0x44 common/built-in.o
 .text.fdt_translate_address
                0x0000000000000000      0x29c common/built-in.o
 .text.fdt_node_offset_by_compat_reg
                0x0000000000000000       0x88 common/built-in.o
 .text.fdt_alloc_phandle
                0x0000000000000000       0x58 common/built-in.o
 .text.fdt_set_phandle
                0x0000000000000000       0x60 common/built-in.o
 .text.fdt_create_phandle
                0x0000000000000000       0x64 common/built-in.o
 .text.fdt_set_node_status
                0x0000000000000000      0x118 common/built-in.o
 .text.fdt_set_status_by_alias
                0x0000000000000000       0x2c common/built-in.o
 .text.fdt_add_edid
                0x0000000000000000       0xac common/built-in.o
 .text.fdt_verify_alias_address
                0x0000000000000000       0xcc common/built-in.o
 .text.fdt_get_base_address
                0x0000000000000000       0x54 common/built-in.o
 .text.fdt_read_range
                0x0000000000000000      0x138 common/built-in.o
 .text.fdt_setup_simplefb_node
                0x0000000000000000      0x1fc common/built-in.o
 .text.usb_submit_int_msg
                0x0000000000000000        0x4 common/built-in.o
 .text.usb_set_protocol
                0x0000000000000000       0x4c common/built-in.o
 .text.usb_set_idle
                0x0000000000000000       0x50 common/built-in.o
 .text.usb_get_report
                0x0000000000000000       0x58 common/built-in.o
 .text.usb_get_class_descriptor
                0x0000000000000000       0x58 common/built-in.o
 .text.usb_alloc_device
                0x0000000000000000        0x8 common/built-in.o
 .text.board_usb_init
                0x0000000000000000        0x8 common/built-in.o
 .text.iomux_printdevs
                0x0000000000000000       0x58 common/built-in.o
 .text.fgetc    0x0000000000000000       0x40 common/built-in.o
 .text.ftstc    0x0000000000000000       0x14 common/built-in.o
 .text.fputc    0x0000000000000000        0xc common/built-in.o
 .text.fputs    0x0000000000000000        0xc common/built-in.o
 .text.fprintf  0x0000000000000000       0x4c common/built-in.o
 .text.confirm_yesno
                0x0000000000000000       0xd4 common/built-in.o
 .text.valloc   0x0000000000000000        0xc common/built-in.o
 .text.pvalloc  0x0000000000000000       0x18 common/built-in.o
 .text.cfree    0x0000000000000000        0x4 common/built-in.o
 .text.malloc_usable_size
                0x0000000000000000       0x3c common/built-in.o
 .text.mallopt  0x0000000000000000       0x68 common/built-in.o
 .text.genimg_get_kernel_addr
                0x0000000000000000       0x24 common/built-in.o
 .text.arch_fixup_fdt
                0x0000000000000000        0x8 common/built-in.o
 .text.fit_get_subimage_count
                0x0000000000000000       0x50 common/built-in.o
 .text.fit_get_timestamp
                0x0000000000000000       0x48 common/built-in.o
 .text.fit_set_timestamp
                0x0000000000000000       0x80 common/built-in.o
 .text.fit_all_image_verify
                0x0000000000000000       0xe4 common/built-in.o
 .text.fit_conf_find_compat
                0x0000000000000000      0x1a4 common/built-in.o
 .text.get_ram_size
                0x0000000000000000       0xe4 common/built-in.o
 .text.stdio_get_list
                0x0000000000000000        0xc common/built-in.o
 .text.stdio_init
                0x0000000000000000       0x14 common/built-in.o
 .text.cli_simple_parse_line
                0x0000000000000000       0x88 common/built-in.o
 .text.cli_simple_process_macros
                0x0000000000000000      0x208 common/built-in.o
 .text.cli_simple_run_command
                0x0000000000000000      0x148 common/built-in.o
 .text.cli_simple_loop
                0x0000000000000000       0x78 common/built-in.o
 .text.cli_simple_run_command_list
                0x0000000000000000       0x70 common/built-in.o
 .text.run_command_repeatable
                0x0000000000000000       0x1c common/built-in.o
 .text.cmd_process_error
                0x0000000000000000       0x34 common/built-in.o
 .text.hex1_bin
                0x0000000000000000       0x40 common/built-in.o
 .text.hex2_bin
                0x0000000000000000       0x38 common/built-in.o
 .text.srec_decode
                0x0000000000000000      0x254 common/built-in.o
 .text.CYGACC_COMM_IF_GETC_TIMEOUT.isra.0
                0x0000000000000000       0x5c common/built-in.o
 .text.xyzModem_flush
                0x0000000000000000       0x1c common/built-in.o
 .text.xyzModem_get_hdr
                0x0000000000000000      0x230 common/built-in.o
 .text.xyzModem_stream_open
                0x0000000000000000      0x23c common/built-in.o
 .text.xyzModem_stream_read
                0x0000000000000000      0x258 common/built-in.o
 .text.xyzModem_stream_close
                0x0000000000000000       0x54 common/built-in.o
 .text.xyzModem_stream_terminate
                0x0000000000000000       0x94 common/built-in.o
 .text.xyzModem_error
                0x0000000000000000       0x20 common/built-in.o
 .rodata.__FUNCTION__.7741
                0x0000000000000000       0x17 common/built-in.o
 .rodata.CSWTCH.28
                0x0000000000000000       0x20 common/built-in.o
 .data          0x0000000000000000        0x0 common/built-in.o
 .data.of_busses
                0x0000000000000000       0x14 common/built-in.o
 .data.mmap_threshold
                0x0000000000000000        0x4 common/built-in.o
 .data.stdio_names
                0x0000000000000000        0xc common/built-in.o
 .bss           0x0000000000000000        0x0 common/built-in.o
 .bss.n_mmaps_max
                0x0000000000000000        0x4 common/built-in.o
 .bss.save_addr
                0x0000000000000000        0x4 common/built-in.o
 .bss.save_size
                0x0000000000000000        0x4 common/built-in.o
 .bss.lastcommand.7430
                0x0000000000000000      0x200 common/built-in.o
 .bss.xyz       0x0000000000000000      0x434 common/built-in.o
 .text          0x0000000000000000        0x0 disk/built-in.o
 .text.set_protective_mbr
                0x0000000000000000       0xc4 disk/built-in.o
 .text.write_gpt_table
                0x0000000000000000      0x388 disk/built-in.o
 .text.gpt_fill_pte
                0x0000000000000000      0x2a0 disk/built-in.o
 .text.gpt_fill_header
                0x0000000000000000      0x1a0 disk/built-in.o
 .text.gpt_restore
                0x0000000000000000       0xf4 disk/built-in.o
 .rodata        0x0000000000000000       0x10 disk/built-in.o
 .rodata.__func__.7565
                0x0000000000000000       0x13 disk/built-in.o
 .rodata.__func__.7615
                0x0000000000000000        0xc disk/built-in.o
 .data          0x0000000000000000        0x0 disk/built-in.o
 .bss           0x0000000000000000        0x0 disk/built-in.o
 .text          0x0000000000000000        0x0 drivers/built-in.o
 .text.get_checksum
                0x0000000000000000       0x40 drivers/built-in.o
 .text.blk_write.constprop.3
                0x0000000000000000       0x5c drivers/built-in.o
 .text.dump_mem.constprop.4
                0x0000000000000000       0x80 drivers/built-in.o
 .text.blk_read.constprop.5
                0x0000000000000000       0x5c drivers/built-in.o
 .text.read_storage
                0x0000000000000000      0x208 drivers/built-in.o
 .text.write_storage
                0x0000000000000000      0x230 drivers/built-in.o
 .text.read_mi_head
                0x0000000000000000      0x13c drivers/built-in.o
 .text.read_mi_item
                0x0000000000000000      0x2f4 drivers/built-in.o
 .text.print_mi_items
                0x0000000000000000       0x64 drivers/built-in.o
 .text.get_item_size
                0x0000000000000000       0xac drivers/built-in.o
 .text.read_misc_info
                0x0000000000000000      0x344 drivers/built-in.o
 .text.write_misc_info
                0x0000000000000000      0x4fc drivers/built-in.o
 .text.write_mi_item
                0x0000000000000000      0x168 drivers/built-in.o
 .text.format_misc_info
                0x0000000000000000       0xb8 drivers/built-in.o
 .text.video_position_cursor
                0x0000000000000000       0x60 drivers/built-in.o
 .text.video_get_pixel_width
                0x0000000000000000       0x14 drivers/built-in.o
 .text.video_get_pixel_height
                0x0000000000000000       0x14 drivers/built-in.o
 .text.video_get_screen_rows
                0x0000000000000000       0x28 drivers/built-in.o
 .text.video_get_screen_columns
                0x0000000000000000       0x18 drivers/built-in.o
 .text.de_hw_close
                0x0000000000000000       0x2c drivers/built-in.o
 .text.disp_disable
                0x0000000000000000       0x74 drivers/built-in.o
 .text.lcdi_convertion_register
                0x0000000000000000       0x20 drivers/built-in.o
 .text.owl_dss_remove
                0x0000000000000000       0x30 drivers/built-in.o
 .text.video_get_param_len.constprop.1
                0x0000000000000000       0x20 drivers/built-in.o
 .text.video_get_params
                0x0000000000000000      0x4e0 drivers/built-in.o
 .text.video_get_video_mode
                0x0000000000000000      0x184 drivers/built-in.o
 .text.video_get_ctfb_res_modes
                0x0000000000000000       0xf4 drivers/built-in.o
 .text.video_get_option_string
                0x0000000000000000       0xb0 drivers/built-in.o
 .text.video_get_option_int
                0x0000000000000000       0x84 drivers/built-in.o
 .text.video_edid_dtd_to_ctfb_res_modes
                0x0000000000000000      0x268 drivers/built-in.o
 .text.__platform_enable_lcd
                0x0000000000000000       0x34 drivers/built-in.o
 .text.__platform_get_lcd_par
                0x0000000000000000        0x8 drivers/built-in.o
 .text.__platform_enable_dsi
                0x0000000000000000       0x1c drivers/built-in.o
 .text.dsihw_send_long_packet
                0x0000000000000000      0x118 drivers/built-in.o
 .text.__platform_get_dsi_par
                0x0000000000000000        0x8 drivers/built-in.o
 .text.send_long_cmd
                0x0000000000000000       0x10 drivers/built-in.o
 .text.read_usr_cfg_file
                0x0000000000000000      0x120 drivers/built-in.o
 .text.parse_audiodata_block
                0x0000000000000000       0x1c drivers/built-in.o
 .text.print_cvbsreg
                0x0000000000000000      0x274 drivers/built-in.o
 .text.cvbs_show_colorbar
                0x0000000000000000       0x44 drivers/built-in.o
 .text.input_tstc
                0x0000000000000000       0x48 drivers/built-in.o
 .text.input_getc
                0x0000000000000000       0x58 drivers/built-in.o
 .text.input_send_keycodes
                0x0000000000000000      0x3b8 drivers/built-in.o
 .text.input_add_table
                0x0000000000000000       0x40 drivers/built-in.o
 .text.input_set_delays
                0x0000000000000000        0xc drivers/built-in.o
 .text.input_init
                0x0000000000000000       0xdc drivers/built-in.o
 .text.input_stdio_register
                0x0000000000000000       0x54 drivers/built-in.o
 .text.create_keymap
                0x0000000000000000       0x94 drivers/built-in.o
 .text.key_matrix_decode
                0x0000000000000000       0xec drivers/built-in.o
 .text.key_matrix_decode_fdt
                0x0000000000000000       0xc4 drivers/built-in.o
 .text.key_matrix_init
                0x0000000000000000       0x3c drivers/built-in.o
 .rodata.__func__.7600
                0x0000000000000000       0x11 drivers/built-in.o
 .rodata.__func__.7495
                0x0000000000000000        0xd drivers/built-in.o
 .rodata.__func__.7547
                0x0000000000000000        0xf drivers/built-in.o
 .rodata.__FUNCTION__.7467
                0x0000000000000000        0xe drivers/built-in.o
 .rodata.__FUNCTION__.7483
                0x0000000000000000        0xd drivers/built-in.o
 .rodata.__func__.7510
                0x0000000000000000        0xe drivers/built-in.o
 .rodata.__FUNCTION__.7578
                0x0000000000000000       0x10 drivers/built-in.o
 .rodata.__func__.7517
                0x0000000000000000        0xf drivers/built-in.o
 .rodata.__func__.7585
                0x0000000000000000       0x10 drivers/built-in.o
 .rodata.__func__.7480
                0x0000000000000000        0xd drivers/built-in.o
 .rodata.__FUNCTION__.7451
                0x0000000000000000        0xd drivers/built-in.o
 .rodata.__FUNCTION__.7397
                0x0000000000000000        0x9 drivers/built-in.o
 .rodata.__func__.7527
                0x0000000000000000        0xe drivers/built-in.o
 .rodata.vesa_modes
                0x0000000000000000       0xe4 drivers/built-in.o
 .rodata.res_mode_init
                0x0000000000000000      0x208 drivers/built-in.o
 .rodata.kbd_to_ansi364
                0x0000000000000000       0x20 drivers/built-in.o
 .rodata.kbd_plain_xlate
                0x0000000000000000       0x63 drivers/built-in.o
 .rodata.CSWTCH.28
                0x0000000000000000        0xd drivers/built-in.o
 .data          0x0000000000000000        0x0 drivers/built-in.o
 .data.HDMI_SETTING_MODE_PATH
                0x0000000000000000        0x4 drivers/built-in.o
 .data.kbd_ctrl_xlate
                0x0000000000000000       0x63 drivers/built-in.o
 .data.kbd_shift_xlate
                0x0000000000000000       0x63 drivers/built-in.o
 .bss           0x0000000000000000        0x0 drivers/built-in.o
 .bss.debug_enable
                0x0000000000000000        0x4 drivers/built-in.o
 .bss.info.9734
                0x0000000000000000       0x78 drivers/built-in.o
 .text          0x0000000000000000        0x0 drivers/gpio/built-in.o
 .text.gpio_request
                0x0000000000000000        0x8 drivers/gpio/built-in.o
 .text.gpio_free
                0x0000000000000000        0x8 drivers/gpio/built-in.o
 .text.gpio_direction_input
                0x0000000000000000       0x28 drivers/gpio/built-in.o
 .text.gpio_direction_output
                0x0000000000000000       0x28 drivers/gpio/built-in.o
 .text.gpio_get_value
                0x0000000000000000       0x28 drivers/gpio/built-in.o
 .text.gpio_set_value
                0x0000000000000000       0x28 drivers/gpio/built-in.o
 .text.owl_gpio_generic_direction_input
                0x0000000000000000       0x20 drivers/gpio/built-in.o
 .text.owl_gpio_generic_get_value
                0x0000000000000000       0x20 drivers/gpio/built-in.o
 .text.owl_gpio_generic_set_value
                0x0000000000000000       0x24 drivers/gpio/built-in.o
 .data          0x0000000000000000        0x0 drivers/gpio/built-in.o
 .bss           0x0000000000000000        0x0 drivers/gpio/built-in.o
 .text          0x0000000000000000        0x0 drivers/i2c/built-in.o
 .text.i2c_get_bus_num
                0x0000000000000000       0x10 drivers/i2c/built-in.o
 .text.acts_dump_i2c_register
                0x0000000000000000       0x48 drivers/i2c/built-in.o
 .text.i2c_get_bus_num_fdt
                0x0000000000000000       0x3c drivers/i2c/built-in.o
 .text.i2c_reset_port_fdt
                0x0000000000000000       0x38 drivers/i2c/built-in.o
 .bss           0x0000000000000000        0x0 drivers/i2c/built-in.o
 .text          0x0000000000000000        0x0 drivers/mmc/built-in.o
 .text.mmc_register
                0x0000000000000000       0x20 drivers/mmc/built-in.o
 .text.mmc_destroy
                0x0000000000000000        0x4 drivers/mmc/built-in.o
 .text.board_mmc_init
                0x0000000000000000        0x8 drivers/mmc/built-in.o
 .text.mmc_set_preinit
                0x0000000000000000        0x8 drivers/mmc/built-in.o
 .rodata.__func__.7915
                0x0000000000000000        0xd drivers/mmc/built-in.o
 .data          0x0000000000000000        0x0 drivers/mmc/built-in.o
 .bss           0x0000000000000000        0x0 drivers/mmc/built-in.o
 .text          0x0000000000000000        0x0 drivers/net/built-in.o
 .text.owl_print_phy_register
                0x0000000000000000      0x258 drivers/net/built-in.o
 .data          0x0000000000000000        0x0 drivers/net/built-in.o
 .bss           0x0000000000000000        0x0 drivers/net/built-in.o
 .text          0x0000000000000000        0x0 drivers/power/built-in.o
 .text.bq27441_gasgauge_get_voltage
                0x0000000000000000       0x74 drivers/power/built-in.o
 .text.bq27441_gasgauge_get_curr
                0x0000000000000000       0x80 drivers/power/built-in.o
 .data          0x0000000000000000        0x0 drivers/power/built-in.o
 .bss           0x0000000000000000        0x0 drivers/power/built-in.o
 .text          0x0000000000000000        0x0 drivers/serial/built-in.o
 .text.serial_reinit_all
                0x0000000000000000       0x2c drivers/serial/built-in.o
 .text.owl_serial_getc_wait
                0x0000000000000000       0x1c drivers/serial/built-in.o
 .data          0x0000000000000000        0x0 drivers/serial/built-in.o
 .bss           0x0000000000000000        0x0 drivers/serial/built-in.o
 .text          0x0000000000000000        0x0 drivers/spi/built-in.o
 .text.spi_set_wordlen
                0x0000000000000000       0x30 drivers/spi/built-in.o
 .text.spi_do_alloc_slave
                0x0000000000000000       0x4c drivers/spi/built-in.o
 .text.spi_clk_init
                0x0000000000000000       0x48 drivers/spi/built-in.o
 .text.spi_mfp_init
                0x0000000000000000       0x5c drivers/spi/built-in.o
 .text.spi_init
                0x0000000000000000       0x68 drivers/spi/built-in.o
 .text.spi_setup_slave
                0x0000000000000000       0x14 drivers/spi/built-in.o
 .text.spi_claim_bus
                0x0000000000000000        0x8 drivers/spi/built-in.o
 .text.spi_release_bus
                0x0000000000000000        0x4 drivers/spi/built-in.o
 .text.spi_free_slave
                0x0000000000000000        0x4 drivers/spi/built-in.o
 .data          0x0000000000000000        0x0 drivers/spi/built-in.o
 .data.g_nor_spi_slave
                0x0000000000000000       0x1c drivers/spi/built-in.o
 .bss           0x0000000000000000        0x0 drivers/spi/built-in.o
 .text          0x0000000000000000        0x0 drivers/usb/gadget/built-in.o
 .text.usb_gadget_config_buf
                0x0000000000000000       0x94 drivers/usb/gadget/built-in.o
 .text.strlcat  0x0000000000000000       0x58 drivers/usb/gadget/built-in.o
 .text.set_no_delay_status
                0x0000000000000000       0x10 drivers/usb/gadget/built-in.o
 .text.dwc3_gadget_ep0_set_halt
                0x0000000000000000       0x14 drivers/usb/gadget/built-in.o
 .text.dwc3_gadget_exit
                0x0000000000000000       0xa8 drivers/usb/gadget/built-in.o
 .text.dwc3_gadget_prepare
                0x0000000000000000       0x24 drivers/usb/gadget/built-in.o
 .text.dwc3_gadget_complete
                0x0000000000000000       0x24 drivers/usb/gadget/built-in.o
 .text.dwc3_gadget_suspend
                0x0000000000000000       0x30 drivers/usb/gadget/built-in.o
 .text.dwc3_gadget_resume
                0x0000000000000000       0x8c drivers/usb/gadget/built-in.o
 .text.usb_function_deactivate
                0x0000000000000000       0x58 drivers/usb/gadget/built-in.o
 .text.usb_function_activate
                0x0000000000000000       0x58 drivers/usb/gadget/built-in.o
 .text.usb_string_ids_tab
                0x0000000000000000       0x40 drivers/usb/gadget/built-in.o
 .text.usb_string_ids_n
                0x0000000000000000       0x2c drivers/usb/gadget/built-in.o
 .text.g_dnl_bind_fixup
                0x0000000000000000        0x8 drivers/usb/gadget/built-in.o
 .text.set_bit  0x0000000000000000       0x1c drivers/usb/gadget/built-in.o
 .text.clear_bit
                0x0000000000000000       0x1c drivers/usb/gadget/built-in.o
 .data          0x0000000000000000        0x0 drivers/usb/gadget/built-in.o
 .bss           0x0000000000000000        0x0 drivers/usb/gadget/built-in.o
 .text          0x0000000000000000        0x0 drivers/usb/host/built-in.o
 .data          0x0000000000000000        0x0 drivers/usb/host/built-in.o
 .bss           0x0000000000000000        0x0 drivers/usb/host/built-in.o
 .text          0x0000000000000000        0x0 fs/built-in.o
 .text.fs_uuid  0x0000000000000000       0x28 fs/built-in.o
 .text.do_fs_uuid
                0x0000000000000000       0x90 fs/built-in.o
 .text.file_getfsname
                0x0000000000000000       0x14 fs/built-in.o
 .text.file_cd  0x0000000000000000      0x1bc fs/built-in.o
 .text.file_detectfs
                0x0000000000000000       0x40 fs/built-in.o
 .text.file_ls  0x0000000000000000       0x98 fs/built-in.o
 .text.file_read
                0x0000000000000000       0xa8 fs/built-in.o
 .rodata.filesystems
                0x0000000000000000       0x18 fs/built-in.o
 .data          0x0000000000000000        0x0 fs/built-in.o
 .data.file_cwd
                0x0000000000000000      0x200 fs/built-in.o
 .data.current_filesystem
                0x0000000000000000        0x4 fs/built-in.o
 .bss           0x0000000000000000        0x0 fs/built-in.o
 .bss.ext4fs_symlinknest
                0x0000000000000000        0x4 fs/built-in.o
 .bss.g_parent_inode
                0x0000000000000000        0x4 fs/built-in.o
 .text          0x0000000000000000        0x0 lib/built-in.o
 .text.inflateInit_
                0x0000000000000000       0x14 lib/built-in.o
 .text.fdt_getprop_by_offset
                0x0000000000000000       0x48 lib/built-in.o
 .text.fdt_get_alias
                0x0000000000000000       0x28 lib/built-in.o
 .text.fdt_get_path
                0x0000000000000000      0x138 lib/built-in.o
 .text.fdt_node_offset_by_prop_value
                0x0000000000000000       0x9c lib/built-in.o
 .text.fdt_count_strings
                0x0000000000000000       0x5c lib/built-in.o
 .text.fdt_find_string
                0x0000000000000000       0x8c lib/built-in.o
 .text.fdt_get_string_index
                0x0000000000000000       0x64 lib/built-in.o
 .text.fdt_get_string
                0x0000000000000000       0x18 lib/built-in.o
 .text.fdt_set_name
                0x0000000000000000       0x88 lib/built-in.o
 .text.fdt_appendprop
                0x0000000000000000       0xd0 lib/built-in.o
 .text.fdt_pack
                0x0000000000000000       0x5c lib/built-in.o
 .text._fdt_sw_check_header
                0x0000000000000000       0x1c lib/built-in.o
 .text._fdt_grab_space
                0x0000000000000000       0x6c lib/built-in.o
 .text.fdt_create
                0x0000000000000000       0x64 lib/built-in.o
 .text.fdt_resize
                0x0000000000000000       0xb4 lib/built-in.o
 .text.fdt_add_reservemap_entry
                0x0000000000000000       0x90 lib/built-in.o
 .text.fdt_finish_reservemap
                0x0000000000000000       0x1c lib/built-in.o
 .text.fdt_begin_node
                0x0000000000000000       0x68 lib/built-in.o
 .text.fdt_end_node
                0x0000000000000000       0x40 lib/built-in.o
 .text.fdt_property
                0x0000000000000000      0x114 lib/built-in.o
 .text.fdt_finish
                0x0000000000000000      0x100 lib/built-in.o
 .text.fdt_setprop_inplace
                0x0000000000000000       0x44 lib/built-in.o
 .text.fdt_nop_property
                0x0000000000000000       0x40 lib/built-in.o
 .text.fdt_nop_node
                0x0000000000000000       0x50 lib/built-in.o
 .text.fdt_find_regions
                0x0000000000000000      0x39c lib/built-in.o
 .text.fdt_create_empty_tree
                0x0000000000000000       0x74 lib/built-in.o
 .text.crc7     0x0000000000000000       0x24 lib/built-in.o
 .text.crc8     0x0000000000000000       0x40 lib/built-in.o
 .text.cyg_crc16
                0x0000000000000000       0x44 lib/built-in.o
 .text.fdtdec_get_number
                0x0000000000000000       0x3c lib/built-in.o
 .text.fdtdec_get_compatible
                0x0000000000000000       0x10 lib/built-in.o
 .text.fdtdec_get_uint64
                0x0000000000000000       0x48 lib/built-in.o
 .text.fdtdec_lookup
                0x0000000000000000       0x4c lib/built-in.o
 .text.fdtdec_next_compatible_subnode
                0x0000000000000000       0x68 lib/built-in.o
 .text.fdtdec_next_alias
                0x0000000000000000       0x94 lib/built-in.o
 .text.fdtdec_get_alias_seq
                0x0000000000000000      0x164 lib/built-in.o
 .text.fdtdec_get_chosen_node
                0x0000000000000000       0x50 lib/built-in.o
 .text.fdtdec_get_int_array_count
                0x0000000000000000       0x58 lib/built-in.o
 .text.fdtdec_locate_array
                0x0000000000000000       0x28 lib/built-in.o
 .text.fdtdec_get_bool
                0x0000000000000000       0x1c lib/built-in.o
 .text.fdtdec_parse_phandle_with_args
                0x0000000000000000      0x15c lib/built-in.o
 .text.fdtdec_get_byte_array
                0x0000000000000000       0x40 lib/built-in.o
 .text.fdtdec_locate_byte_array
                0x0000000000000000       0x24 lib/built-in.o
 .text.fdtdec_get_config_bool
                0x0000000000000000       0x44 lib/built-in.o
 .text.fdtdec_decode_region
                0x0000000000000000       0x54 lib/built-in.o
 .text.fdtdec_read_fmap_entry
                0x0000000000000000       0xd4 lib/built-in.o
 .text.fdt_get_resource
                0x0000000000000000       0xe0 lib/built-in.o
 .text.fdt_get_named_resource
                0x0000000000000000       0x40 lib/built-in.o
 .text.fdtdec_decode_memory_region
                0x0000000000000000      0x130 lib/built-in.o
 .text.lmb_dump_all
                0x0000000000000000        0x4 lib/built-in.o
 .text.lmb_is_reserved
                0x0000000000000000       0x5c lib/built-in.o
 .text.arch_lmb_reserve
                0x0000000000000000        0x4 lib/built-in.o
 .text.ldiv     0x0000000000000000       0x50 lib/built-in.o
 .text.md5      0x0000000000000000       0x68 lib/built-in.o
 .text.strcmp_compar
                0x0000000000000000        0xc lib/built-in.o
 .text.sha1_csum
                0x0000000000000000       0x40 lib/built-in.o
 .text.sha1_hmac
                0x0000000000000000      0x124 lib/built-in.o
 .text.sha1_self_test
                0x0000000000000000        0x8 lib/built-in.o
 .text.strmhz   0x0000000000000000       0x64 lib/built-in.o
 .text.merge    0x0000000000000000       0x68 lib/built-in.o
 .text.list_sort
                0x0000000000000000      0x198 lib/built-in.o
 .text.hmatch_r
                0x0000000000000000       0xa0 lib/built-in.o
 .text.copy_from_user
                0x0000000000000000       0x10 lib/built-in.o
 .text.kmalloc  0x0000000000000000        0xc lib/built-in.o
 .text.vzalloc  0x0000000000000000        0x8 lib/built-in.o
 .text.get_mem  0x0000000000000000       0x1c lib/built-in.o
 .text.kmem_cache_alloc
                0x0000000000000000       0x10 lib/built-in.o
 .text.strncasecmp
                0x0000000000000000       0x9c lib/built-in.o
 .text.strcasecmp
                0x0000000000000000        0x8 lib/built-in.o
 .text.strspn   0x0000000000000000       0x3c lib/built-in.o
 .text.strtok   0x0000000000000000       0x88 lib/built-in.o
 .text.strswab  0x0000000000000000       0x48 lib/built-in.o
 .text.bcopy    0x0000000000000000       0x24 lib/built-in.o
 .text.strlcpy  0x0000000000000000       0x50 lib/built-in.o
 .text.memscan  0x0000000000000000       0x2c lib/built-in.o
 .text.memchr_inv
                0x0000000000000000      0x130 lib/built-in.o
 .text.tick_to_time
                0x0000000000000000       0x64 lib/built-in.o
 .text.get_ticks
                0x0000000000000000       0x40 lib/built-in.o
 .text.timer_init
                0x0000000000000000        0x8 lib/built-in.o
 .text.get_timer
                0x0000000000000000       0x18 lib/built-in.o
 .text.timer_get_us
                0x0000000000000000       0x24 lib/built-in.o
 .text.__udelay
                0x0000000000000000       0x9c lib/built-in.o
 .text.uuid_str_valid
                0x0000000000000000       0x94 lib/built-in.o
 .text.uuid_str_to_bin
                0x0000000000000000      0x188 lib/built-in.o
 .text.vsnprintf
                0x0000000000000000        0x4 lib/built-in.o
 .text.scnprintf
                0x0000000000000000       0x28 lib/built-in.o
 .text.__assert_fail
                0x0000000000000000       0x14 lib/built-in.o
 .text.print_grouped_ull
                0x0000000000000000       0x88 lib/built-in.o
 .text.rand     0x0000000000000000        0xc lib/built-in.o
 .text.srand    0x0000000000000000       0x10 lib/built-in.o
 .rodata.z_errmsg
                0x0000000000000000       0x28 lib/built-in.o
 .rodata.crc7_syndrome_table
                0x0000000000000000      0x100 lib/built-in.o
 .rodata.crc16_tab
                0x0000000000000000      0x200 lib/built-in.o
 .data          0x0000000000000000        0x0 lib/built-in.o
 .data.cur      0x0000000000000000        0x4 lib/built-in.o
 .data.current  0x0000000000000000        0x4 lib/built-in.o
 .data.y        0x0000000000000000        0x4 lib/built-in.o
 .bss           0x0000000000000000        0x0 lib/built-in.o
 .bss.___strtok
                0x0000000000000000        0x4 lib/built-in.o
 .text          0x0000000000000000        0x0 net/built-in.o
 .text.add_ip_checksums
                0x0000000000000000       0x3c net/built-in.o
 .text.eth_get_dev_by_name
                0x0000000000000000       0x84 net/built-in.o
 .text.eth_get_dev_by_index
                0x0000000000000000       0x40 net/built-in.o
 .text.eth_unregister
                0x0000000000000000       0x8c net/built-in.o
 .text.net_get_udp_handler
                0x0000000000000000       0x10 net/built-in.o
 .text.net_set_arp_handler
                0x0000000000000000       0x20 net/built-in.o
 .text.VLAN_to_string
                0x0000000000000000       0x3c net/built-in.o
 .rodata.__FUNCTION__.7817
                0x0000000000000000       0x14 net/built-in.o
 .data          0x0000000000000000        0x0 net/built-in.o
 .data.TftpRRQTimeoutMSecs
                0x0000000000000000        0x4 net/built-in.o
 .bss           0x0000000000000000        0x0 net/built-in.o
 .bss.net_busy_flag
                0x0000000000000000        0x4 net/built-in.o
 .text          0x0000000000000000        0x0 arch/arm/lib/eabi_compat.o
 .data          0x0000000000000000        0x0 arch/arm/lib/eabi_compat.o
 .bss           0x0000000000000000        0x0 arch/arm/lib/eabi_compat.o
 .text.__aeabi_unwind_cpp_pr0
                0x0000000000000000        0x4 arch/arm/lib/eabi_compat.o
 .text.__aeabi_unwind_cpp_pr1
                0x0000000000000000        0x4 arch/arm/lib/eabi_compat.o
 .text.__aeabi_memcpy
                0x0000000000000000        0x4 arch/arm/lib/eabi_compat.o
 .text.__aeabi_memset
                0x0000000000000000       0x10 arch/arm/lib/eabi_compat.o
 .data          0x0000000000000000        0x0 /usr/lib/gcc/arm-linux-gnueabihf/4.9/libgcc.a(_udivsi3.o)
 .bss           0x0000000000000000        0x0 /usr/lib/gcc/arm-linux-gnueabihf/4.9/libgcc.a(_udivsi3.o)
 .data          0x0000000000000000        0x0 /usr/lib/gcc/arm-linux-gnueabihf/4.9/libgcc.a(_divsi3.o)
 .bss           0x0000000000000000        0x0 /usr/lib/gcc/arm-linux-gnueabihf/4.9/libgcc.a(_divsi3.o)
 .data          0x0000000000000000        0x0 /usr/lib/gcc/arm-linux-gnueabihf/4.9/libgcc.a(_lshrdi3.o)
 .bss           0x0000000000000000        0x0 /usr/lib/gcc/arm-linux-gnueabihf/4.9/libgcc.a(_lshrdi3.o)
 .data          0x0000000000000000        0x0 /usr/lib/gcc/arm-linux-gnueabihf/4.9/libgcc.a(_ashldi3.o)
 .bss           0x0000000000000000        0x0 /usr/lib/gcc/arm-linux-gnueabihf/4.9/libgcc.a(_ashldi3.o)
 .data          0x0000000000000000        0x0 /usr/lib/gcc/arm-linux-gnueabihf/4.9/libgcc.a(_dvmd_lnx.o)
 .bss           0x0000000000000000        0x0 /usr/lib/gcc/arm-linux-gnueabihf/4.9/libgcc.a(_dvmd_lnx.o)

Memory Configuration

Name             Origin             Length             Attributes
*default*        0x0000000000000000 0xffffffffffffffff

Linker script and memory map

Address of section .text set to 0x8000040
                0x0000000000000000                . = 0x0
                0x0000000000000000                . = ALIGN (0x4)

.text           0x0000000008000040    0x43244
 *(.__image_copy_start)
 .__image_copy_start
                0x0000000008000040        0x0 arch/arm/lib/built-in.o
                0x0000000008000040                __image_copy_start
 *(.vectors)
 .vectors       0x0000000008000040      0x2c0 arch/arm/lib/built-in.o
                0x0000000008000040                _start
                0x0000000008000060                _undefined_instruction
                0x0000000008000064                _software_interrupt
                0x0000000008000068                _prefetch_abort
                0x000000000800006c                _data_abort
                0x0000000008000070                _not_used
                0x0000000008000074                _irq
                0x0000000008000078                _fiq
                0x0000000008000080                IRQ_STACK_START_IN
                0x0000000008000084                IRQ_STACK_START
                0x0000000008000088                FIQ_STACK_START
 arch/arm/cpu/armv7/start.o(.text*)
 .text          0x0000000008000300       0xb0 arch/arm/cpu/armv7/start.o
                0x0000000008000300                reset
                0x0000000008000304                save_boot_params_ret
                0x0000000008000340                c_runtime_cpu_setup
                0x0000000008000350                save_boot_params
                0x0000000008000354                cpu_init_cp15
                0x00000000080003a8                cpu_init_crit
 *(.text*)
 .text          0x00000000080003b0       0x24 arch/arm/cpu/armv7/built-in.o
                0x00000000080003b0                lowlevel_init
 .text.v7_maint_dcache_all
                0x00000000080003d4       0xd0 arch/arm/cpu/armv7/built-in.o
 .text.invalidate_icache_all
                0x00000000080004a4       0x18 arch/arm/cpu/armv7/built-in.o
                0x00000000080004a4                invalidate_icache_all
 .text.v7_outer_cache_enable
                0x00000000080004bc        0x4 arch/arm/cpu/armv7/built-in.o
                0x00000000080004bc                v7_outer_cache_enable
 .text.v7_outer_cache_disable
                0x00000000080004c0        0x4 arch/arm/cpu/armv7/built-in.o
                0x00000000080004c0                v7_outer_cache_disable
 .text.v7_outer_cache_flush_all
                0x00000000080004c4        0x4 arch/arm/cpu/armv7/built-in.o
                0x00000000080004c4                v7_outer_cache_flush_all
 .text.flush_dcache_all
                0x00000000080004c8       0x14 arch/arm/cpu/armv7/built-in.o
                0x00000000080004c8                flush_dcache_all
 .text.v7_outer_cache_inval_all
                0x00000000080004dc        0x4 arch/arm/cpu/armv7/built-in.o
                0x00000000080004dc                v7_outer_cache_inval_all
 .text.invalidate_dcache_all
                0x00000000080004e0       0x14 arch/arm/cpu/armv7/built-in.o
                0x00000000080004e0                invalidate_dcache_all
 .text.arm_init_before_mmu
                0x00000000080004f4       0x28 arch/arm/cpu/armv7/built-in.o
                0x00000000080004f4                arm_init_before_mmu
 .text.v7_outer_cache_flush_range
                0x000000000800051c        0x4 arch/arm/cpu/armv7/built-in.o
                0x000000000800051c                v7_outer_cache_flush_range
 .text.flush_dcache_range
                0x0000000008000520       0x3c arch/arm/cpu/armv7/built-in.o
                0x0000000008000520                flush_dcache_range
 .text.mmu_page_table_flush
                0x000000000800055c       0x24 arch/arm/cpu/armv7/built-in.o
                0x000000000800055c                mmu_page_table_flush
 .text.flush_cache
                0x0000000008000580        0x8 arch/arm/cpu/armv7/built-in.o
                0x0000000008000580                flush_cache
 .text.v7_outer_cache_inval_range
                0x0000000008000588        0x4 arch/arm/cpu/armv7/built-in.o
                0x0000000008000588                v7_outer_cache_inval_range
 .text.invalidate_dcache_range
                0x000000000800058c       0xac arch/arm/cpu/armv7/built-in.o
                0x000000000800058c                invalidate_dcache_range
 .text.cpu_cache_initialization
                0x0000000008000638        0x4 arch/arm/cpu/armv7/built-in.o
                0x0000000008000638                cpu_cache_initialization
 .text.cleanup_before_linux
                0x000000000800063c       0x28 arch/arm/cpu/armv7/built-in.o
                0x000000000800063c                cleanup_before_linux
 .text._atc2603c_reg_read
                0x0000000008000664       0x54 arch/arm/cpu/armv7/built-in.o
 .text._atc2609a_reg_read
                0x00000000080006b8       0x54 arch/arm/cpu/armv7/built-in.o
 .text._atc2603c_reg_write
                0x000000000800070c       0x4c arch/arm/cpu/armv7/built-in.o
 .text._atc2609a_reg_write
                0x0000000008000758       0x4c arch/arm/cpu/armv7/built-in.o
 .text._atc2603a_reg_read
                0x00000000080007a4       0x48 arch/arm/cpu/armv7/built-in.o
 .text._atc2603a_reg_write
                0x00000000080007ec       0x40 arch/arm/cpu/armv7/built-in.o
 .text.atc260x_reg_read
                0x000000000800082c        0x4 arch/arm/cpu/armv7/built-in.o
                0x000000000800082c                atc260x_reg_read
 .text.atc260x_reg_write
                0x0000000008000830        0x4 arch/arm/cpu/armv7/built-in.o
                0x0000000008000830                atc260x_reg_write
 .text.atc260x_set_bits
                0x0000000008000834       0x50 arch/arm/cpu/armv7/built-in.o
                0x0000000008000834                atc260x_set_bits
 .text.atc260x_get_version
                0x0000000008000884       0x88 arch/arm/cpu/armv7/built-in.o
                0x0000000008000884                atc260x_get_version
 .text.pmu_early_init
                0x000000000800090c      0x10c arch/arm/cpu/armv7/built-in.o
                0x000000000800090c                pmu_early_init
 .text.vdd_core_init
                0x0000000008000a18       0xc0 arch/arm/cpu/armv7/built-in.o
                0x0000000008000a18                vdd_core_init
 .text.pmu_init
                0x0000000008000ad8      0xe68 arch/arm/cpu/armv7/built-in.o
                0x0000000008000ad8                pmu_init
 .text.atc260x_pstore_set
                0x0000000008001940       0xdc arch/arm/cpu/armv7/built-in.o
                0x0000000008001940                atc260x_pstore_set
 .text.atc260x_pstore_get
                0x0000000008001a1c       0xb0 arch/arm/cpu/armv7/built-in.o
                0x0000000008001a1c                atc260x_pstore_get
 .text.atc260x_pstore_get_noerr
                0x0000000008001acc       0x28 arch/arm/cpu/armv7/built-in.o
                0x0000000008001acc                atc260x_pstore_get_noerr
 .text.reset_cpu
                0x0000000008001af4      0x1a0 arch/arm/cpu/armv7/built-in.o
                0x0000000008001af4                reset_cpu
 .text.s_init   0x0000000008001c94        0x4 arch/arm/cpu/armv7/built-in.o
                0x0000000008001c94                s_init
 .text.default_isr
                0x0000000008001c98       0x18 arch/arm/cpu/armv7/built-in.o
 .text.do_irq   0x0000000008001cb0       0x6c arch/arm/cpu/armv7/built-in.o
                0x0000000008001cb0                do_irq
 .text.irq_install_handler
                0x0000000008001d1c       0xf0 arch/arm/cpu/armv7/built-in.o
                0x0000000008001d1c                irq_install_handler
 .text.arch_interrupt_init
                0x0000000008001e0c       0x90 arch/arm/cpu/armv7/built-in.o
                0x0000000008001e0c                arch_interrupt_init
 .text.group_name_to_selector
                0x0000000008001e9c       0x50 arch/arm/cpu/armv7/built-in.o
 .text.pinctrl_set_function
                0x0000000008001eec      0x220 arch/arm/cpu/armv7/built-in.o
 .text.pinctrl_group_set_config
                0x000000000800210c       0x7c arch/arm/cpu/armv7/built-in.o
                0x000000000800210c                pinctrl_group_set_config
 .text.pinctrl_pin_set_config
                0x0000000008002188      0x104 arch/arm/cpu/armv7/built-in.o
                0x0000000008002188                pinctrl_pin_set_config
 .text.pinctrl_pin_set_configs
                0x000000000800228c       0x48 arch/arm/cpu/armv7/built-in.o
                0x000000000800228c                pinctrl_pin_set_configs
 .text.pinctrl_group_set_configs
                0x00000000080022d4       0x48 arch/arm/cpu/armv7/built-in.o
                0x00000000080022d4                pinctrl_group_set_configs
 .text.owl_fdtdec_set_pinctrl
                0x000000000800231c      0x290 arch/arm/cpu/armv7/built-in.o
                0x000000000800231c                owl_fdtdec_set_pinctrl
 .text.owl_device_fdtdec_set_pinctrl_default
                0x00000000080025ac       0x74 arch/arm/cpu/armv7/built-in.o
                0x00000000080025ac                owl_device_fdtdec_set_pinctrl_default
 .text.pinctrl_init_r
                0x0000000008002620      0x108 arch/arm/cpu/armv7/built-in.o
                0x0000000008002620                pinctrl_init_r
 .text.pwm_enable
                0x0000000008002728       0x2c arch/arm/cpu/armv7/built-in.o
                0x0000000008002728                pwm_enable
 .text.pwm_disable
                0x0000000008002754       0x28 arch/arm/cpu/armv7/built-in.o
                0x0000000008002754                pwm_disable
 .text.pwm_config
                0x000000000800277c       0xec arch/arm/cpu/armv7/built-in.o
                0x000000000800277c                pwm_config
 .text.fdtdec_pwm_get
                0x0000000008002868      0x178 arch/arm/cpu/armv7/built-in.o
                0x0000000008002868                fdtdec_pwm_get
 .text.pwm_init
                0x00000000080029e0       0x48 arch/arm/cpu/armv7/built-in.o
                0x00000000080029e0                pwm_init
 .text.timer_init
                0x0000000008002a28       0x38 arch/arm/cpu/armv7/built-in.o
                0x0000000008002a28                timer_init
 .text.get_timer_masked
                0x0000000008002a60       0x5c arch/arm/cpu/armv7/built-in.o
                0x0000000008002a60                get_timer_masked
 .text.__udelay
                0x0000000008002abc       0x50 arch/arm/cpu/armv7/built-in.o
                0x0000000008002abc                __udelay
 .text.get_timer
                0x0000000008002b0c       0x14 arch/arm/cpu/armv7/built-in.o
                0x0000000008002b0c                get_timer
 .text.owl_reset_assert
                0x0000000008002b20       0x40 arch/arm/cpu/armv7/built-in.o
                0x0000000008002b20                owl_reset_assert
 .text.owl_reset_deassert
                0x0000000008002b60       0x40 arch/arm/cpu/armv7/built-in.o
                0x0000000008002b60                owl_reset_deassert
 .text.owl_reset
                0x0000000008002ba0       0x20 arch/arm/cpu/armv7/built-in.o
                0x0000000008002ba0                owl_reset
 .text.owl_clk_enable
                0x0000000008002bc0       0x40 arch/arm/cpu/armv7/built-in.o
                0x0000000008002bc0                owl_clk_enable
 .text.owl_get_displaypll_rate
                0x0000000008002c00       0x20 arch/arm/cpu/armv7/built-in.o
                0x0000000008002c00                owl_get_displaypll_rate
 .text.owl_get_devpll_rate
                0x0000000008002c20       0x20 arch/arm/cpu/armv7/built-in.o
                0x0000000008002c20                owl_get_devpll_rate
 .text.owl_get_devclk_rate
                0x0000000008002c40       0x24 arch/arm/cpu/armv7/built-in.o
                0x0000000008002c40                owl_get_devclk_rate
 .text.owl_get_nic_clk_rate
                0x0000000008002c64       0x28 arch/arm/cpu/armv7/built-in.o
                0x0000000008002c64                owl_get_nic_clk_rate
 .text.owl_clk_init
                0x0000000008002c8c      0x264 arch/arm/cpu/armv7/built-in.o
                0x0000000008002c8c                owl_clk_init
 .text          0x0000000008002ef0       0xa0 arch/arm/lib/built-in.o
                0x0000000008002ef0                _main
 .text.relocate_vectors
                0x0000000008002f90       0x70 arch/arm/lib/built-in.o
                0x0000000008002f90                relocate_vectors
                0x0000000008002f9c                relocate_code
 .text.arch_fixup_fdt
                0x0000000008003000       0x38 arch/arm/lib/built-in.o
                0x0000000008003000                arch_fixup_fdt
 .text.boot_jump_linux
                0x0000000008003038       0xb8 arch/arm/lib/built-in.o
 .text.boot_prep_linux
                0x00000000080030f0       0x4c arch/arm/lib/built-in.o
 .text.arch_lmb_reserve
                0x000000000800313c       0x24 arch/arm/lib/built-in.o
                0x000000000800313c                arch_lmb_reserve
 .text.do_bootm_linux
                0x0000000008003160       0x88 arch/arm/lib/built-in.o
                0x0000000008003160                do_bootm_linux
 .text.bootz_setup
                0x00000000080031e8       0x60 arch/arm/lib/built-in.o
                0x00000000080031e8                bootz_setup
 .text.boot_prep_vxworks
                0x0000000008003248       0x50 arch/arm/lib/built-in.o
                0x0000000008003248                boot_prep_vxworks
 .text.boot_jump_vxworks
                0x0000000008003298        0xc arch/arm/lib/built-in.o
                0x0000000008003298                boot_jump_vxworks
 .text.arch_reserve_stacks
                0x00000000080032a4       0x34 arch/arm/lib/built-in.o
                0x00000000080032a4                arch_reserve_stacks
 .text.interrupt_init
                0x00000000080032d8       0x6c arch/arm/lib/built-in.o
                0x00000000080032d8                interrupt_init
 .text.enable_interrupts
                0x0000000008003344       0x10 arch/arm/lib/built-in.o
                0x0000000008003344                enable_interrupts
 .text.disable_interrupts
                0x0000000008003354       0x18 arch/arm/lib/built-in.o
                0x0000000008003354                disable_interrupts
 .text.bad_mode
                0x000000000800336c       0x10 arch/arm/lib/built-in.o
                0x000000000800336c                bad_mode
 .text.show_regs
                0x000000000800337c      0x174 arch/arm/lib/built-in.o
                0x000000000800337c                show_regs
 .text.do_undefined_instruction
                0x00000000080034f0       0x20 arch/arm/lib/built-in.o
                0x00000000080034f0                do_undefined_instruction
 .text.do_software_interrupt
                0x0000000008003510       0x20 arch/arm/lib/built-in.o
                0x0000000008003510                do_software_interrupt
 .text.do_prefetch_abort
                0x0000000008003530       0x20 arch/arm/lib/built-in.o
                0x0000000008003530                do_prefetch_abort
 .text.do_data_abort
                0x0000000008003550       0x20 arch/arm/lib/built-in.o
                0x0000000008003550                do_data_abort
 .text.do_not_used
                0x0000000008003570       0x20 arch/arm/lib/built-in.o
                0x0000000008003570                do_not_used
 .text.do_fiq   0x0000000008003590       0x20 arch/arm/lib/built-in.o
                0x0000000008003590                do_fiq
 .text.reset_misc
                0x00000000080035b0        0x4 arch/arm/lib/built-in.o
                0x00000000080035b0                reset_misc
 .text.do_reset
                0x00000000080035b4       0x30 arch/arm/lib/built-in.o
                0x00000000080035b4                do_reset
 .text.cp_delay
                0x00000000080035e4       0x30 arch/arm/lib/built-in.o
 .text.arm_init_domains
                0x0000000008003614        0x4 arch/arm/lib/built-in.o
                0x0000000008003614                arm_init_domains
 .text.set_section_dcache
                0x0000000008003618       0x14 arch/arm/lib/built-in.o
                0x0000000008003618                set_section_dcache
 .text.mmu_set_region_dcache_behaviour
                0x000000000800362c       0x50 arch/arm/lib/built-in.o
                0x000000000800362c                mmu_set_region_dcache_behaviour
 .text.dram_bank_mmu_setup
                0x000000000800367c       0x44 arch/arm/lib/built-in.o
                0x000000000800367c                dram_bank_mmu_setup
 .text.icache_disable
                0x00000000080036c0       0x1c arch/arm/lib/built-in.o
                0x00000000080036c0                icache_disable
 .text.dcache_enable
                0x00000000080036dc       0x6c arch/arm/lib/built-in.o
                0x00000000080036dc                dcache_enable
 .text.dcache_disable
                0x0000000008003748       0x2c arch/arm/lib/built-in.o
                0x0000000008003748                dcache_disable
 .text.dcache_status
                0x0000000008003774        0xc arch/arm/lib/built-in.o
                0x0000000008003774                dcache_status
 .text.get_boot_dev_num
                0x0000000008003780       0x40 board/actions/owl/built-in.o
                0x0000000008003780                get_boot_dev_num
 .text.dram_init
                0x00000000080037c0       0x34 board/actions/owl/built-in.o
                0x00000000080037c0                dram_init
 .text.board_init
                0x00000000080037f4       0x38 board/actions/owl/built-in.o
                0x00000000080037f4                board_init
 .text.board_eth_init
                0x000000000800382c       0x28 board/actions/owl/built-in.o
                0x000000000800382c                board_eth_init
 .text.board_mmc_init
                0x0000000008003854       0x88 board/actions/owl/built-in.o
                0x0000000008003854                board_mmc_init
 .text.owl_get_boot_mode
                0x00000000080038dc       0x30 board/actions/owl/built-in.o
                0x00000000080038dc                owl_get_boot_mode
 .text.owl_get_boot_dev
                0x000000000800390c       0x30 board/actions/owl/built-in.o
                0x000000000800390c                owl_get_boot_dev
 .text.owl_afi_get_serial_number
                0x000000000800393c       0x30 board/actions/owl/built-in.o
                0x000000000800393c                owl_afi_get_serial_number
 .text.owl_afi_get_serial_pad
                0x000000000800396c       0x30 board/actions/owl/built-in.o
                0x000000000800396c                owl_afi_get_serial_pad
 .text.owl_afi_get_serial_baudrate
                0x000000000800399c       0x34 board/actions/owl/built-in.o
                0x000000000800399c                owl_afi_get_serial_baudrate
 .text.owl_get_ddr_size
                0x00000000080039d0       0x30 board/actions/owl/built-in.o
                0x00000000080039d0                owl_get_ddr_size
 .text.owl_afi_init
                0x0000000008003a00        0x8 board/actions/owl/built-in.o
                0x0000000008003a00                owl_afi_init
 .text.boot_append_remove_args.constprop.0
                0x0000000008003a08       0x58 board/actions/owl/built-in.o
 .text.boot_append_bootargs_add
                0x0000000008003a60       0xf4 board/actions/owl/built-in.o
                0x0000000008003a60                boot_append_bootargs_add
 .text.owl_boot_fdt_setup
                0x0000000008003b54      0x1d0 board/actions/owl/built-in.o
                0x0000000008003b54                owl_boot_fdt_setup
 .text.check_recovery_cmd_file
                0x0000000008003d24      0x128 board/actions/owl/built-in.o
 .text.setup_recovery_env
                0x0000000008003e4c       0x3c board/actions/owl/built-in.o
                0x0000000008003e4c                setup_recovery_env
 .text.check_recovery_mode
                0x0000000008003e88      0x114 board/actions/owl/built-in.o
                0x0000000008003e88                check_recovery_mode
 .text.g_dnl_bind_fixup
                0x0000000008003f9c       0x50 board/actions/owl/built-in.o
                0x0000000008003f9c                g_dnl_bind_fixup
 .text.show_boot_progress
                0x0000000008003fec        0x4 common/built-in.o
                0x0000000008003fec                show_boot_progress
 .text.main_loop
                0x0000000008003ff0       0x48 common/built-in.o
                0x0000000008003ff0                main_loop
 .text.dummy    0x0000000008004038        0x4 common/built-in.o
 .text.get_version
                0x000000000800403c        0x8 common/built-in.o
                0x000000000800403c                get_version
 .text.jumptable_init
                0x0000000008004044      0x1b0 common/built-in.o
                0x0000000008004044                jumptable_init
 .text.hash_finish_crc32
                0x00000000080041f4       0x30 common/built-in.o
 .text.hash_update_crc32
                0x0000000008004224       0x24 common/built-in.o
 .text.hash_init_crc32
                0x0000000008004248       0x24 common/built-in.o
 .text.hash_finish_sha256
                0x000000000800426c       0x38 common/built-in.o
 .text.hash_update_sha256
                0x00000000080042a4       0x1c common/built-in.o
 .text.hash_init_sha256
                0x00000000080042c0       0x24 common/built-in.o
 .text.hash_finish_sha1
                0x00000000080042e4       0x38 common/built-in.o
 .text.hash_update_sha1
                0x000000000800431c       0x1c common/built-in.o
 .text.hash_init_sha1
                0x0000000008004338       0x24 common/built-in.o
 .text.hash_lookup_algo
                0x000000000800435c       0x58 common/built-in.o
                0x000000000800435c                hash_lookup_algo
 .text.hash_show
                0x00000000080043b4       0x58 common/built-in.o
                0x00000000080043b4                hash_show
 .text.hash_command
                0x000000000800440c      0x184 common/built-in.o
                0x000000000800440c                hash_command
 .text.b_reset  0x0000000008004590       0x1c common/built-in.o
 .text.static_get
                0x00000000080045ac       0x1c common/built-in.o
 .text.static_peek
                0x00000000080045c8        0xc common/built-in.o
 .text.file_peek
                0x00000000080045d4        0xc common/built-in.o
 .text.mapset   0x00000000080045e0       0x20 common/built-in.o
 .text.syntax_err
                0x0000000008004600        0xc common/built-in.o
 .text.free_pipe_list
                0x000000000800460c       0xf0 common/built-in.o
 .text.xmalloc  0x00000000080046fc       0x20 common/built-in.o
 .text.new_pipe
                0x000000000800471c       0x28 common/built-in.o
 .text.xrealloc
                0x0000000008004744       0x20 common/built-in.o
 .text.done_command
                0x0000000008004764       0x88 common/built-in.o
 .text.done_pipe
                0x00000000080047ec       0x48 common/built-in.o
 .text.done_word
                0x0000000008004834      0x2d8 common/built-in.o
 .text.do_showvar
                0x0000000008004b0c       0xfc common/built-in.o
 .text.is_assignment
                0x0000000008004c08       0x5c common/built-in.o
 .text.file_get
                0x0000000008004c64      0x1ec common/built-in.o
 .text.b_addchr
                0x0000000008004e50       0x78 common/built-in.o
 .text.b_addqchr
                0x0000000008004ec8       0x50 common/built-in.o
 .text.get_local_var
                0x0000000008004f18       0xa0 common/built-in.o
                0x0000000008004f18                get_local_var
 .text.set_local_var
                0x0000000008004fb8      0x1ac common/built-in.o
                0x0000000008004fb8                set_local_var
 .text.insert_var_value_sub
                0x0000000008005164      0x2c0 common/built-in.o
 .text.parse_string_outer
                0x0000000008005424       0xe4 common/built-in.o
                0x0000000008005424                parse_string_outer
 .text.run_list_real
                0x0000000008005508      0x7e4 common/built-in.o
 .text.parse_stream_outer
                0x0000000008005cec      0x6d4 common/built-in.o
 .text.parse_file_outer
                0x00000000080063c0       0x44 common/built-in.o
                0x00000000080063c0                parse_file_outer
 .text.u_boot_hush_start
                0x0000000008006404       0x54 common/built-in.o
                0x0000000008006404                u_boot_hush_start
 .text.bootdelay_process
                0x0000000008006458       0xc4 common/built-in.o
                0x0000000008006458                bootdelay_process
 .text.autoboot_command
                0x000000000800651c       0xd0 common/built-in.o
                0x000000000800651c                autoboot_command
 .text.print_cpuinfo
                0x00000000080065ec        0x8 common/built-in.o
 .text.display_text_info
                0x00000000080065f4        0x8 common/built-in.o
 .text.setup_mon_len
                0x00000000080065fc       0x20 common/built-in.o
 .text.arch_cpu_init
                0x000000000800661c        0x8 common/built-in.o
                0x000000000800661c                arch_cpu_init
 .text.reserve_round_4k
                0x0000000008006624       0x18 common/built-in.o
 .text.reserve_mmu
                0x000000000800663c       0x38 common/built-in.o
 .text.reserve_trace
                0x0000000008006674        0x8 common/built-in.o
 .text.reserve_uboot
                0x000000000800667c       0x30 common/built-in.o
 .text.reserve_malloc
                0x00000000080066ac       0x14 common/built-in.o
 .text.setup_machine
                0x00000000080066c0        0x8 common/built-in.o
 .text.reserve_global_data
                0x00000000080066c8       0x1c common/built-in.o
 .text.reserve_fdt
                0x00000000080066e4       0x4c common/built-in.o
 .text.display_new_sp
                0x0000000008006730        0x8 common/built-in.o
 .text.initf_malloc
                0x0000000008006738        0x8 common/built-in.o
 .text.initf_dm
                0x0000000008006740        0x8 common/built-in.o
 .text.reserve_arch
                0x0000000008006748        0x8 common/built-in.o
                0x0000000008006748                reserve_arch
 .text.setup_reloc
                0x0000000008006750       0x2c common/built-in.o
 .text.reloc_fdt
                0x000000000800677c       0x30 common/built-in.o
 .text.announce_dram_init
                0x00000000080067ac       0x18 common/built-in.o
 .text.init_baud_rate
                0x00000000080067c4       0x2c common/built-in.o
 .text.setup_fdt
                0x00000000080067f0       0x34 common/built-in.o
 .text.mark_bootstage
                0x0000000008006824       0x14 common/built-in.o
 .text.reserve_board
                0x0000000008006838       0x38 common/built-in.o
 .text.coloured_LED_init
                0x0000000008006870        0x4 common/built-in.o
                0x0000000008006870                coloured_LED_init
 .text.red_led_on
                0x0000000008006874        0x4 common/built-in.o
                0x0000000008006874                red_led_on
 .text.board_add_ram_info
                0x0000000008006878        0x4 common/built-in.o
                0x0000000008006878                board_add_ram_info
 .text.show_dram_config
                0x000000000800687c       0x38 common/built-in.o
 .text.dram_init_banksize
                0x00000000080068b4       0x20 common/built-in.o
                0x00000000080068b4                dram_init_banksize
 .text.setup_dram_config
                0x00000000080068d4       0x10 common/built-in.o
 .text.board_get_usable_ram_top
                0x00000000080068e4        0xc common/built-in.o
                0x00000000080068e4                board_get_usable_ram_top
 .text.setup_dest_addr
                0x00000000080068f0       0x3c common/built-in.o
 .text.reserve_stacks
                0x000000000800692c       0x1c common/built-in.o
 .text.board_init_f
                0x0000000008006948       0x28 common/built-in.o
                0x0000000008006948                board_init_f
 .text.bootstage_relocate
                0x0000000008006970        0x8 common/built-in.o
 .text.initr_trace
                0x0000000008006978        0x8 common/built-in.o
 .text.initr_reloc_global_data
                0x0000000008006980       0x28 common/built-in.o
 .text.initr_barrier
                0x00000000080069a8        0x8 common/built-in.o
 .text.initr_announce
                0x00000000080069b0        0x8 common/built-in.o
 .text.power_init_board
                0x00000000080069b8       0x1c common/built-in.o
                0x00000000080069b8                power_init_board
 .text.run_main_loop
                0x00000000080069d4        0xc common/built-in.o
 .text.initr_net
                0x00000000080069e0       0x20 common/built-in.o
 .text.initr_ethaddr
                0x0000000008006a00       0x20 common/built-in.o
 .text.initr_enable_interrupts
                0x0000000008006a20       0x10 common/built-in.o
 .text.initr_jumptable
                0x0000000008006a30       0x10 common/built-in.o
 .text.check_recovery
                0x0000000008006a40       0x10 common/built-in.o
 .text.initr_env
                0x0000000008006a50       0x54 common/built-in.o
 .text.initr_mmc
                0x0000000008006aa4       0x20 common/built-in.o
 .text.initr_serial
                0x0000000008006ac4       0x10 common/built-in.o
 .text.initr_malloc
                0x0000000008006ad4       0x1c common/built-in.o
 .text.initr_caches
                0x0000000008006af0       0x10 common/built-in.o
 .text.initr_reloc
                0x0000000008006b00       0x24 common/built-in.o
 .text.check_boot_flag
                0x0000000008006b24       0xe4 common/built-in.o
 .text.cpu_secondary_init_r
                0x0000000008006c08        0x4 common/built-in.o
                0x0000000008006c08                cpu_secondary_init_r
 .text.initr_secondary_cpu
                0x0000000008006c0c       0x10 common/built-in.o
 .text.board_init_r
                0x0000000008006c1c       0x18 common/built-in.o
                0x0000000008006c1c                board_init_r
 .text.do_go_exec
                0x0000000008006c34       0x10 common/built-in.o
                0x0000000008006c34                do_go_exec
 .text.do_go    0x0000000008006c44       0x6c common/built-in.o
 .text.do_bootm
                0x0000000008006cb0      0x118 common/built-in.o
                0x0000000008006cb0                do_bootm
 .text.do_booti
                0x0000000008006dc8      0x154 common/built-in.o
                0x0000000008006dc8                do_booti
 .text.bootm_maybe_autostart
                0x0000000008006f1c       0x78 common/built-in.o
                0x0000000008006f1c                bootm_maybe_autostart
 .text.do_bootz
                0x0000000008006f94       0xf8 common/built-in.o
                0x0000000008006f94                do_bootz
 .text.bootm_find_ramdisk_fdt
                0x000000000800708c       0xa8 common/built-in.o
                0x000000000800708c                bootm_find_ramdisk_fdt
 .text.bootm_decomp_image
                0x0000000008007134      0x150 common/built-in.o
                0x0000000008007134                bootm_decomp_image
 .text.bootm_disable_interrupts
                0x0000000008007284       0x18 common/built-in.o
                0x0000000008007284                bootm_disable_interrupts
 .text.do_bootm_states
                0x000000000800729c      0x954 common/built-in.o
                0x000000000800729c                do_bootm_states
 .text.copy_args
                0x0000000008007bf0       0x50 common/built-in.o
 .text.do_bootm_rtems
                0x0000000008007c40       0x54 common/built-in.o
 .text.do_bootm_plan9
                0x0000000008007c94       0xb8 common/built-in.o
 .text.do_bootm_standalone
                0x0000000008007d4c       0x64 common/built-in.o
 .text.do_bootm_netbsd
                0x0000000008007db0      0x104 common/built-in.o
 .text.do_bootvx_fdt
                0x0000000008007eb4      0x10c common/built-in.o
                0x0000000008007eb4                do_bootvx_fdt
 .text.do_bootm_vxworks
                0x0000000008007fc0       0x38 common/built-in.o
 .text.arch_preboot_os
                0x0000000008007ff8        0x4 common/built-in.o
                0x0000000008007ff8                arch_preboot_os
 .text.boot_selected_os
                0x0000000008007ffc       0x58 common/built-in.o
                0x0000000008007ffc                boot_selected_os
 .text.bootm_os_get_boot_func
                0x0000000008008054       0x10 common/built-in.o
                0x0000000008008054                bootm_os_get_boot_func
 .text.do_help  0x0000000008008064       0x48 common/built-in.o
 .text.do_version
                0x00000000080080ac       0x38 common/built-in.o
 .text.env_attr_walk
                0x00000000080080e4      0x114 common/built-in.o
                0x00000000080080e4                env_attr_walk
 .text.env_attr_lookup
                0x00000000080081f8      0x18c common/built-in.o
                0x00000000080081f8                env_attr_lookup
 .text.clear_callback
                0x0000000008008384       0x10 common/built-in.o
 .text.find_env_callback
                0x0000000008008394       0x68 common/built-in.o
 .text.on_callbacks
                0x00000000080083fc       0x48 common/built-in.o
 .text.set_callback
                0x0000000008008444       0x94 common/built-in.o
 .text.env_callback_init
                0x00000000080084d8       0xc4 common/built-in.o
                0x00000000080084d8                env_callback_init
 .text.skip_num
                0x000000000800859c       0x70 common/built-in.o
 .text.clear_flags
                0x000000000800860c       0x10 common/built-in.o
 .text.on_flags
                0x000000000800861c       0x48 common/built-in.o
 .text.env_flags_parse_vartype
                0x0000000008008664       0x50 common/built-in.o
                0x0000000008008664                env_flags_parse_vartype
 .text.env_flags_parse_varaccess
                0x00000000080086b4       0x58 common/built-in.o
                0x00000000080086b4                env_flags_parse_varaccess
 .text.set_flags
                0x000000000800870c       0xac common/built-in.o
 .text.env_flags_init
                0x00000000080087b8       0xd8 common/built-in.o
                0x00000000080087b8                env_flags_init
 .text.env_flags_validate
                0x0000000008008890      0x324 common/built-in.o
                0x0000000008008890                env_flags_validate
 .text.init_mmc_for_env
                0x0000000008008bb4       0x34 common/built-in.o
 .text.mmc_get_env_addr
                0x0000000008008be8       0x18 common/built-in.o
                0x0000000008008be8                mmc_get_env_addr
 .text.env_init
                0x0000000008008c00       0x1c common/built-in.o
                0x0000000008008c00                env_init
 .text.saveenv  0x0000000008008c1c      0x14c common/built-in.o
                0x0000000008008c1c                saveenv
 .text.env_relocate_spec
                0x0000000008008d68      0x298 common/built-in.o
                0x0000000008008d68                env_relocate_spec
 .text.source   0x0000000008009000      0x1c4 common/built-in.o
                0x0000000008009000                source
 .text.do_source
                0x00000000080091c4       0x74 common/built-in.o
 .text.do_echo  0x0000000008009238       0xb0 common/built-in.o
 .text.do_exit  0x00000000080092e8       0x30 common/built-in.o
 .text.do_ext4_size
                0x0000000008009318       0x18 common/built-in.o
                0x0000000008009318                do_ext4_size
 .text.do_ext4_load
                0x0000000008009330       0x18 common/built-in.o
                0x0000000008009330                do_ext4_load
 .text.do_ext4_ls
                0x0000000008009348       0x18 common/built-in.o
                0x0000000008009348                do_ext4_ls
 .text.do_ext2load
                0x0000000008009360       0x18 common/built-in.o
                0x0000000008009360                do_ext2load
 .text.do_ext2ls
                0x0000000008009378       0x18 common/built-in.o
 .text.do_fat_size
                0x0000000008009390       0x18 common/built-in.o
                0x0000000008009390                do_fat_size
 .text.do_fat_fsload
                0x00000000080093a8       0x18 common/built-in.o
                0x00000000080093a8                do_fat_fsload
 .text.do_fat_ls
                0x00000000080093c0       0x18 common/built-in.o
 .text.do_fat_fsinfo
                0x00000000080093d8       0x90 common/built-in.o
 .text.do_fat_fswrite
                0x0000000008009468      0x10c common/built-in.o
 .text.fdt_valid
                0x0000000008009574       0xbc common/built-in.o
 .text.is_printable_string
                0x0000000008009630       0x98 common/built-in.o
 .text.print_data
                0x00000000080096c8      0x174 common/built-in.o
 .text.set_working_fdt_addr
                0x000000000800983c       0x1c common/built-in.o
                0x000000000800983c                set_working_fdt_addr
 .text.do_fdt   0x0000000008009858      0xef4 common/built-in.o
 .text.fdt_find_and_setprop
                0x000000000800a74c       0x70 common/built-in.o
                0x000000000800a74c                fdt_find_and_setprop
 .text.fdt_find_or_add_subnode
                0x000000000800a7bc       0x68 common/built-in.o
                0x000000000800a7bc                fdt_find_or_add_subnode
 .text.fdt_initrd
                0x000000000800a824      0x1d0 common/built-in.o
                0x000000000800a824                fdt_initrd
 .text.fdt_chosen
                0x000000000800a9f4       0xa8 common/built-in.o
                0x000000000800a9f4                fdt_chosen
 .text.do_fixup_by_path
                0x000000000800aa9c       0x54 common/built-in.o
                0x000000000800aa9c                do_fixup_by_path
 .text.fdt_fixup_memory_banks
                0x000000000800aaf0      0x1a4 common/built-in.o
                0x000000000800aaf0                fdt_fixup_memory_banks
 .text.fdt_fixup_memory
                0x000000000800ac94       0x20 common/built-in.o
                0x000000000800ac94                fdt_fixup_memory
 .text.fdt_fixup_ethernet
                0x000000000800acb4      0x158 common/built-in.o
                0x000000000800acb4                fdt_fixup_ethernet
 .text.fdt_shrink_to_minimum
                0x000000000800ae0c       0xcc common/built-in.o
                0x000000000800ae0c                fdt_shrink_to_minimum
 .text.do_size_wrapper
                0x000000000800aed8       0x18 common/built-in.o
 .text.do_load_wrapper
                0x000000000800aef0       0x18 common/built-in.o
 .text.do_save_wrapper
                0x000000000800af08       0x18 common/built-in.o
 .text.do_ls_wrapper
                0x000000000800af20       0x18 common/built-in.o
 .text.do_fstype_wrapper
                0x000000000800af38        0x4 common/built-in.o
 .text.do_mem_mw
                0x000000000800af3c       0xc0 common/built-in.o
 .text.do_mem_loop
                0x000000000800affc       0xec common/built-in.o
 .text.do_mem_md
                0x000000000800b0e8       0xec common/built-in.o
 .text.do_mem_cmp
                0x000000000800b1d4      0x16c common/built-in.o
 .text.do_mem_base
                0x000000000800b340       0x40 common/built-in.o
 .text.do_mem_cp
                0x000000000800b380       0xd8 common/built-in.o
 .text.do_mem_crc
                0x000000000800b458       0x48 common/built-in.o
 .text.mod_mem.isra.2
                0x000000000800b4a0      0x164 common/built-in.o
 .text.do_mem_mm
                0x000000000800b604        0x8 common/built-in.o
 .text.do_mem_nm
                0x000000000800b60c        0x8 common/built-in.o
 .text.do_mmcops
                0x000000000800b614       0xb4 common/built-in.o
 .text.init_mmc_device
                0x000000000800b6c8       0x54 common/built-in.o
 .text.do_mmc_rescan
                0x000000000800b71c       0x24 common/built-in.o
 .text.do_mmc_hwpartition
                0x000000000800b740      0x51c common/built-in.o
 .text.do_mmc_list
                0x000000000800bc5c       0x14 common/built-in.o
 .text.do_mmc_dev
                0x000000000800bc70      0x134 common/built-in.o
 .text.do_mmc_part
                0x000000000800bda4       0x5c common/built-in.o
 .text.do_mmc_erase
                0x000000000800be00       0xe8 common/built-in.o
 .text.do_mmc_write
                0x000000000800bee8      0x100 common/built-in.o
 .text.do_mmc_read
                0x000000000800bfe8       0xec common/built-in.o
 .text.do_mmcinfo
                0x000000000800c0d4      0x370 common/built-in.o
 .text.do_mmc_setdsr
                0x000000000800c444       0xb0 common/built-in.o
 .text.netboot_common
                0x000000000800c4f4      0x294 common/built-in.o
 .text.do_bootp
                0x000000000800c788        0xc common/built-in.o
 .text.do_tftpb
                0x000000000800c794       0x40 common/built-in.o
                0x000000000800c794                do_tftpb
 .text.do_usbnet
                0x000000000800c7d4       0x4c common/built-in.o
                0x000000000800c7d4                do_usbnet
 .text.do_ping  0x000000000800c820       0x7c common/built-in.o
 .text.do_false
                0x000000000800c89c        0x8 common/built-in.o
 .text.do_true  0x000000000800c8a4        0x8 common/built-in.o
 .text.do_test  0x000000000800c8ac      0x33c common/built-in.o
 .text.usb_get_class_desc
                0x000000000800cbe8       0xbc common/built-in.o
 .text.usb_display_class_sub
                0x000000000800cca4      0x170 common/built-in.o
 .text.usb_find_device
                0x000000000800ce14       0x3c common/built-in.o
 .text.usb_show_tree_graph
                0x000000000800ce50      0x21c common/built-in.o
 .text.usb_display_string
                0x000000000800d06c       0x44 common/built-in.o
 .text.usb_display_config
                0x000000000800d0b0      0x20c common/built-in.o
 .text.do_usbboot
                0x000000000800d2bc        0xc common/built-in.o
 .text.do_usb_start
                0x000000000800d2c8       0x30 common/built-in.o
 .text.usb_display_desc.part.3
                0x000000000800d2f8      0x12c common/built-in.o
 .text.do_usb   0x000000000800d424      0x780 common/built-in.o
 .text.usb_set_maxpacket_ep
                0x000000000800dba4       0x70 common/built-in.o
 .text.usb_stop
                0x000000000800dc14       0x64 common/built-in.o
                0x000000000800dc14                usb_stop
 .text.usb_disable_asynch
                0x000000000800dc78       0x20 common/built-in.o
                0x000000000800dc78                usb_disable_asynch
 .text.usb_control_msg
                0x000000000800dc98       0xc4 common/built-in.o
                0x000000000800dc98                usb_control_msg
 .text.usb_get_descriptor
                0x000000000800dd5c       0x50 common/built-in.o
 .text.usb_get_string
                0x000000000800ddac       0x6c common/built-in.o
 .text.usb_string_sub
                0x000000000800de18      0x108 common/built-in.o
 .text.usb_bulk_msg
                0x000000000800df20       0x74 common/built-in.o
                0x000000000800df20                usb_bulk_msg
 .text.usb_maxpacket
                0x000000000800df94       0x1c common/built-in.o
                0x000000000800df94                usb_maxpacket
 .text.usb_clear_halt
                0x000000000800dfb0       0x8c common/built-in.o
                0x000000000800dfb0                usb_clear_halt
 .text.usb_get_configuration_no
                0x000000000800e03c       0xbc common/built-in.o
                0x000000000800e03c                usb_get_configuration_no
 .text.usb_set_interface
                0x000000000800e0f8       0xb0 common/built-in.o
                0x000000000800e0f8                usb_set_interface
 .text.usb_string
                0x000000000800e1a8      0x100 common/built-in.o
                0x000000000800e1a8                usb_string
 .text.usb_get_dev_index
                0x000000000800e2a8       0x24 common/built-in.o
                0x000000000800e2a8                usb_get_dev_index
 .text.usb_alloc_new_device
                0x000000000800e2cc       0xa0 common/built-in.o
                0x000000000800e2cc                usb_alloc_new_device
 .text.usb_free_device
                0x000000000800e36c       0x48 common/built-in.o
                0x000000000800e36c                usb_free_device
 .text.usb_new_device
                0x000000000800e3b4      0x5a8 common/built-in.o
                0x000000000800e3b4                usb_new_device
 .text.usb_init
                0x000000000800e95c      0x12c common/built-in.o
                0x000000000800e95c                usb_init
 .text.usb_set_port_feature
                0x000000000800ea88       0x4c common/built-in.o
 .text.usb_hub_power_on
                0x000000000800ead4       0x44 common/built-in.o
 .text.usb_get_port_status
                0x000000000800eb18       0x4c common/built-in.o
 .text.usb_clear_port_feature
                0x000000000800eb64       0x4c common/built-in.o
 .text.usb_get_hub_descriptor
                0x000000000800ebb0       0x50 common/built-in.o
 .text.usb_hub_reset_devices
                0x000000000800ec00        0x4 common/built-in.o
                0x000000000800ec00                usb_hub_reset_devices
 .text.usb_hub_reset
                0x000000000800ec04       0x14 common/built-in.o
                0x000000000800ec04                usb_hub_reset
 .text.hub_port_reset
                0x000000000800ec18       0x98 common/built-in.o
                0x000000000800ec18                hub_port_reset
 .text.usb_hub_port_connect_change
                0x000000000800ecb0      0x120 common/built-in.o
                0x000000000800ecb0                usb_hub_port_connect_change
 .text.usb_hub_configure
                0x000000000800edd0      0x2d8 common/built-in.o
 .text.usb_hub_probe
                0x000000000800f0a8       0x64 common/built-in.o
                0x000000000800f0a8                usb_hub_probe
 .text.usb_stor_irq
                0x000000000800f10c       0x1c common/built-in.o
 .text.usb_stor_BBB_reset
                0x000000000800f128       0xd0 common/built-in.o
 .text.usb_stor_CB_reset
                0x000000000800f1f8       0xcc common/built-in.o
 .text.usb_stor_BBB_clear_endpt_stall.isra.2
                0x000000000800f2c4       0x40 common/built-in.o
 .text.usb_stor_BBB_transport
                0x000000000800f304      0x26c common/built-in.o
 .text.usb_stor_CB_comdat
                0x000000000800f570      0x208 common/built-in.o
 .text.usb_stor_CBI_get_status.isra.4
                0x000000000800f778       0xc8 common/built-in.o
 .text.usb_stor_CB_transport
                0x000000000800f840      0x228 common/built-in.o
 .text.usb_request_sense.constprop.10
                0x000000000800fa68       0x70 common/built-in.o
 .text.usb_stor_write
                0x000000000800fad8      0x1c8 common/built-in.o
                0x000000000800fad8                usb_stor_write
 .text.usb_stor_read
                0x000000000800fca0      0x1c8 common/built-in.o
                0x000000000800fca0                usb_stor_read
 .text.usb_stor_get_dev
                0x000000000800fe68       0x28 common/built-in.o
                0x000000000800fe68                usb_stor_get_dev
 .text.usb_stor_info
                0x000000000800fe90       0x74 common/built-in.o
                0x000000000800fe90                usb_stor_info
 .text.usb_storage_probe
                0x000000000800ff04      0x210 common/built-in.o
                0x000000000800ff04                usb_storage_probe
 .text.usb_stor_get_info
                0x0000000008010114      0x324 common/built-in.o
                0x0000000008010114                usb_stor_get_info
 .text.usb_stor_scan
                0x0000000008010438      0x20c common/built-in.o
                0x0000000008010438                usb_stor_scan
 .text.do_fastboot
                0x0000000008010644       0x6c common/built-in.o
 .text.ums_read_sector
                0x00000000080106b0       0x24 common/built-in.o
 .text.ums_write_sector
                0x00000000080106d4       0x24 common/built-in.o
 .text.ums_init
                0x00000000080106f8       0x60 common/built-in.o
                0x00000000080106f8                ums_init
 .text.do_usb_mass_storage
                0x0000000008010758      0x18c common/built-in.o
                0x0000000008010758                do_usb_mass_storage
 .text.iomux_doenv
                0x00000000080108e4      0x1b8 common/built-in.o
                0x00000000080108e4                iomux_doenv
 .text.splash_screen_prepare
                0x0000000008010a9c        0x8 common/built-in.o
                0x0000000008010a9c                splash_screen_prepare
 .text.splash_get_pos
                0x0000000008010aa4       0x84 common/built-in.o
                0x0000000008010aa4                splash_get_pos
 .text.do_env_delete
                0x0000000008010b28       0x9c common/built-in.o
 .text.do_env_save
                0x0000000008010bc4       0x2c common/built-in.o
 .text.do_env   0x0000000008010bf0       0x64 common/built-in.o
 .text.env_print
                0x0000000008010c54       0xc0 common/built-in.o
 .text.do_env_print
                0x0000000008010d14       0xc8 common/built-in.o
 .text.do_env_import
                0x0000000008010ddc      0x28c common/built-in.o
 .text.do_env_default
                0x0000000008011068       0xa8 common/built-in.o
 .text._do_env_set.isra.1
                0x0000000008011110      0x1b8 common/built-in.o
 .text.do_env_set
                0x00000000080112c8       0x1c common/built-in.o
 .text.get_env_id
                0x00000000080112e4       0x10 common/built-in.o
                0x00000000080112e4                get_env_id
 .text.setenv   0x00000000080112f4       0x58 common/built-in.o
                0x00000000080112f4                setenv
 .text.setenv_ulong
                0x000000000801134c       0x20 common/built-in.o
                0x000000000801134c                setenv_ulong
 .text.setenv_hex
                0x000000000801136c       0x34 common/built-in.o
                0x000000000801136c                setenv_hex
 .text.do_env_export
                0x00000000080113a0      0x264 common/built-in.o
 .text.envmatch
                0x0000000008011604       0x6c common/built-in.o
                0x0000000008011604                envmatch
 .text.getenv_f
                0x0000000008011670       0xc8 common/built-in.o
                0x0000000008011670                getenv_f
 .text.getenv   0x0000000008011738       0x78 common/built-in.o
                0x0000000008011738                getenv
 .text.getenv_hex
                0x00000000080117b0       0x3c common/built-in.o
                0x00000000080117b0                getenv_hex
 .text.getenv_ulong
                0x00000000080117ec       0x30 common/built-in.o
                0x00000000080117ec                getenv_ulong
 .text.env_get_char_spec
                0x000000000801181c        0xc common/built-in.o
                0x000000000801181c                env_get_char_spec
 .text.env_get_addr
                0x0000000008011828       0x20 common/built-in.o
                0x0000000008011828                env_get_addr
 .text.env_get_char_memory
                0x0000000008011848       0x10 common/built-in.o
                0x0000000008011848                env_get_char_memory
 .text.env_get_char
                0x0000000008011858       0x30 common/built-in.o
                0x0000000008011858                env_get_char
 .text.getenv_yesno
                0x0000000008011888       0x40 common/built-in.o
                0x0000000008011888                getenv_yesno
 .text.getenv_default
                0x00000000080118c8       0x30 common/built-in.o
                0x00000000080118c8                getenv_default
 .text.set_default_env
                0x00000000080118f8       0xc0 common/built-in.o
                0x00000000080118f8                set_default_env
 .text.set_default_vars
                0x00000000080119b8       0x3c common/built-in.o
                0x00000000080119b8                set_default_vars
 .text.env_import
                0x00000000080119f4       0xe4 common/built-in.o
                0x00000000080119f4                env_import
 .text.env_export
                0x0000000008011ad8       0xa4 common/built-in.o
                0x0000000008011ad8                env_export
 .text.env_relocate
                0x0000000008011b7c       0x30 common/built-in.o
                0x0000000008011b7c                env_relocate
 .text.console_tstc
                0x0000000008011bac       0x88 common/built-in.o
 .text.console_putc
                0x0000000008011c34       0x54 common/built-in.o
 .text.console_puts
                0x0000000008011c88       0x54 common/built-in.o
 .text.serial_printf
                0x0000000008011cdc       0x44 common/built-in.o
                0x0000000008011cdc                serial_printf
 .text.console_getc.isra.0
                0x0000000008011d20       0x28 common/built-in.o
 .text.tstc     0x0000000008011d48       0x24 common/built-in.o
                0x0000000008011d48                tstc
 .text.putc     0x0000000008011d6c       0x28 common/built-in.o
                0x0000000008011d6c                putc
 .text.puts     0x0000000008011d94       0x28 common/built-in.o
                0x0000000008011d94                puts
 .text.printf   0x0000000008011dbc       0x50 common/built-in.o
                0x0000000008011dbc                printf
 .text.on_console
                0x0000000008011e0c       0xc4 common/built-in.o
 .text.getc     0x0000000008011ed0       0x44 common/built-in.o
                0x0000000008011ed0                getc
 .text.vprintf  0x0000000008011f14       0x34 common/built-in.o
                0x0000000008011f14                vprintf
 .text.ctrlc    0x0000000008011f48       0x58 common/built-in.o
                0x0000000008011f48                ctrlc
 .text.disable_ctrlc
                0x0000000008011fa0       0x18 common/built-in.o
                0x0000000008011fa0                disable_ctrlc
 .text.had_ctrlc
                0x0000000008011fb8       0x10 common/built-in.o
                0x0000000008011fb8                had_ctrlc
 .text.clear_ctrlc
                0x0000000008011fc8       0x14 common/built-in.o
                0x0000000008011fc8                clear_ctrlc
 .text.search_device
                0x0000000008011fdc       0x28 common/built-in.o
                0x0000000008011fdc                search_device
 .text.console_assign
                0x0000000008012004       0xd8 common/built-in.o
                0x0000000008012004                console_assign
 .text.console_init_f
                0x00000000080120dc       0x10 common/built-in.o
                0x00000000080120dc                console_init_f
 .text.stdio_print_current_devices
                0x00000000080120ec       0xb0 common/built-in.o
                0x00000000080120ec                stdio_print_current_devices
 .text.console_init_r
                0x000000000801219c      0x1b4 common/built-in.o
                0x000000000801219c                console_init_r
 .text.sbrk     0x0000000008012350       0x70 common/built-in.o
                0x0000000008012350                sbrk
 .text.mem_malloc_init
                0x00000000080123c0       0x34 common/built-in.o
                0x00000000080123c0                mem_malloc_init
 .text.malloc_trim
                0x00000000080123f4       0xcc common/built-in.o
                0x00000000080123f4                malloc_trim
 .text.free     0x00000000080124c0      0x230 common/built-in.o
                0x00000000080124c0                free
 .text.malloc   0x00000000080126f0      0x608 common/built-in.o
                0x00000000080126f0                malloc
 .text.calloc   0x0000000008012cf8       0xd4 common/built-in.o
                0x0000000008012cf8                calloc
 .text.realloc  0x0000000008012dcc      0x4c0 common/built-in.o
                0x0000000008012dcc                realloc
 .text.memalign
                0x000000000801328c      0x10c common/built-in.o
                0x000000000801328c                memalign
 .text.on_loadaddr
                0x0000000008013398       0x38 common/built-in.o
 .text.image_check_hcrc
                0x00000000080133d0       0x4c common/built-in.o
                0x00000000080133d0                image_check_hcrc
 .text.image_check_dcrc
                0x000000000801341c       0x38 common/built-in.o
                0x000000000801341c                image_check_dcrc
 .text.image_multi_count
                0x0000000008013454       0x1c common/built-in.o
                0x0000000008013454                image_multi_count
 .text.image_multi_getimg
                0x0000000008013470       0x80 common/built-in.o
                0x0000000008013470                image_multi_getimg
 .text.getenv_bootm_low
                0x00000000080134f0       0x28 common/built-in.o
                0x00000000080134f0                getenv_bootm_low
 .text.getenv_bootm_size
                0x0000000008013518       0x5c common/built-in.o
                0x0000000008013518                getenv_bootm_size
 .text.getenv_bootm_mapsize
                0x0000000008013574       0x30 common/built-in.o
                0x0000000008013574                getenv_bootm_mapsize
 .text.memmove_wd
                0x00000000080135a4        0xc common/built-in.o
                0x00000000080135a4                memmove_wd
 .text.genimg_print_size
                0x00000000080135b0       0x30 common/built-in.o
                0x00000000080135b0                genimg_print_size
 .text.get_table_entry_name
                0x00000000080135e0       0x2c common/built-in.o
                0x00000000080135e0                get_table_entry_name
 .text.genimg_get_os_name
                0x000000000801360c       0x18 common/built-in.o
                0x000000000801360c                genimg_get_os_name
 .text.genimg_get_arch_name
                0x0000000008013624       0x18 common/built-in.o
                0x0000000008013624                genimg_get_arch_name
 .text.genimg_get_type_name
                0x000000000801363c       0x18 common/built-in.o
                0x000000000801363c                genimg_get_type_name
 .text.genimg_get_comp_name
                0x0000000008013654       0x18 common/built-in.o
                0x0000000008013654                genimg_get_comp_name
 .text.image_print_contents
                0x000000000801366c      0x174 common/built-in.o
                0x000000000801366c                image_print_contents
 .text.get_table_entry_id
                0x00000000080137e0       0x4c common/built-in.o
                0x00000000080137e0                get_table_entry_id
 .text.genimg_get_os_id
                0x000000000801382c       0x18 common/built-in.o
                0x000000000801382c                genimg_get_os_id
 .text.genimg_get_arch_id
                0x0000000008013844       0x18 common/built-in.o
                0x0000000008013844                genimg_get_arch_id
 .text.genimg_get_type_id
                0x000000000801385c       0x18 common/built-in.o
                0x000000000801385c                genimg_get_type_id
 .text.genimg_get_comp_id
                0x0000000008013874       0x18 common/built-in.o
                0x0000000008013874                genimg_get_comp_id
 .text.genimg_get_kernel_addr_fit
                0x000000000801388c       0x70 common/built-in.o
                0x000000000801388c                genimg_get_kernel_addr_fit
 .text.genimg_get_format
                0x00000000080138fc       0x50 common/built-in.o
                0x00000000080138fc                genimg_get_format
 .text.genimg_get_image
                0x000000000801394c        0x4 common/built-in.o
                0x000000000801394c                genimg_get_image
 .text.genimg_has_config
                0x0000000008013950       0x10 common/built-in.o
                0x0000000008013950                genimg_has_config
 .text.boot_get_ramdisk
                0x0000000008013960      0x360 common/built-in.o
                0x0000000008013960                boot_get_ramdisk
 .text.boot_ramdisk_high
                0x0000000008013cc0      0x130 common/built-in.o
                0x0000000008013cc0                boot_ramdisk_high
 .text.boot_get_setup
                0x0000000008013df0        0x4 common/built-in.o
                0x0000000008013df0                boot_get_setup
 .text.image_setup_linux
                0x0000000008013df4       0xa0 common/built-in.o
                0x0000000008013df4                image_setup_linux
 .text.android_image_get_kernel
                0x0000000008013e94      0x14c common/built-in.o
                0x0000000008013e94                android_image_get_kernel
 .text.android_image_check_header
                0x0000000008013fe0       0x14 common/built-in.o
                0x0000000008013fe0                android_image_check_header
 .text.android_image_get_end
                0x0000000008013ff4       0x4c common/built-in.o
                0x0000000008013ff4                android_image_get_end
 .text.android_image_get_kload
                0x0000000008014040        0x8 common/built-in.o
                0x0000000008014040                android_image_get_kload
 .text.android_image_get_ramdisk
                0x0000000008014048       0x74 common/built-in.o
                0x0000000008014048                android_image_get_ramdisk
 .text.fdt_error
                0x00000000080140bc       0x2c common/built-in.o
 .text.boot_fdt_add_mem_rsv_regions
                0x00000000080140e8       0x88 common/built-in.o
                0x00000000080140e8                boot_fdt_add_mem_rsv_regions
 .text.boot_relocate_fdt
                0x0000000008014170      0x194 common/built-in.o
                0x0000000008014170                boot_relocate_fdt
 .text.boot_get_fdt
                0x0000000008014304      0x3cc common/built-in.o
                0x0000000008014304                boot_get_fdt
 .text.ft_verify_fdt
                0x00000000080146d0        0x8 common/built-in.o
                0x00000000080146d0                ft_verify_fdt
 .text.image_setup_libfdt
                0x00000000080146d8       0xe8 common/built-in.o
                0x00000000080146d8                image_setup_libfdt
 .text.fit_parse_conf
                0x00000000080147c0       0x64 common/built-in.o
                0x00000000080147c0                fit_parse_conf
 .text.fit_parse_subimage
                0x0000000008014824       0x64 common/built-in.o
                0x0000000008014824                fit_parse_subimage
 .text.fit_get_desc
                0x0000000008014888       0x30 common/built-in.o
                0x0000000008014888                fit_get_desc
 .text.fit_image_get_node
                0x00000000080148b8       0x30 common/built-in.o
                0x00000000080148b8                fit_image_get_node
 .text.fit_image_get_os
                0x00000000080148e8       0x3c common/built-in.o
                0x00000000080148e8                fit_image_get_os
 .text.fit_image_get_arch
                0x0000000008014924       0x3c common/built-in.o
                0x0000000008014924                fit_image_get_arch
 .text.fit_image_get_type
                0x0000000008014960       0x3c common/built-in.o
                0x0000000008014960                fit_image_get_type
 .text.fit_image_get_comp
                0x000000000801499c       0x3c common/built-in.o
                0x000000000801499c                fit_image_get_comp
 .text.fit_image_get_load
                0x00000000080149d8       0x38 common/built-in.o
                0x00000000080149d8                fit_image_get_load
 .text.fit_image_get_entry
                0x0000000008014a10       0x38 common/built-in.o
                0x0000000008014a10                fit_image_get_entry
 .text.fit_image_get_data
                0x0000000008014a48       0x40 common/built-in.o
                0x0000000008014a48                fit_image_get_data
 .text.fit_image_hash_get_algo
                0x0000000008014a88       0x30 common/built-in.o
                0x0000000008014a88                fit_image_hash_get_algo
 .text.fit_image_hash_get_value
                0x0000000008014ab8       0x40 common/built-in.o
                0x0000000008014ab8                fit_image_hash_get_value
 .text.fit_image_print_data
                0x0000000008014af8      0x140 common/built-in.o
 .text.fit_image_print
                0x0000000008014c38      0x334 common/built-in.o
                0x0000000008014c38                fit_image_print
 .text.calculate_hash
                0x0000000008014f6c       0xfc common/built-in.o
                0x0000000008014f6c                calculate_hash
 .text.fit_image_verify
                0x0000000008015068      0x218 common/built-in.o
                0x0000000008015068                fit_image_verify
 .text.fit_image_check_os
                0x0000000008015280       0x30 common/built-in.o
                0x0000000008015280                fit_image_check_os
 .text.fit_image_check_arch
                0x00000000080152b0       0x44 common/built-in.o
                0x00000000080152b0                fit_image_check_arch
 .text.fit_image_check_type
                0x00000000080152f4       0x30 common/built-in.o
                0x00000000080152f4                fit_image_check_type
 .text.fit_image_check_comp
                0x0000000008015324       0x30 common/built-in.o
                0x0000000008015324                fit_image_check_comp
 .text.fit_check_format
                0x0000000008015354       0x40 common/built-in.o
                0x0000000008015354                fit_check_format
 .text.fit_conf_get_node
                0x0000000008015394       0x68 common/built-in.o
                0x0000000008015394                fit_conf_get_node
 .text.fit_conf_get_prop_node
                0x00000000080153fc       0x2c common/built-in.o
                0x00000000080153fc                fit_conf_get_prop_node
 .text.fit_conf_print
                0x0000000008015428      0x108 common/built-in.o
                0x0000000008015428                fit_conf_print
 .text.fit_print_contents
                0x0000000008015530      0x1dc common/built-in.o
                0x0000000008015530                fit_print_contents
 .text.fit_get_node_from_config
                0x000000000801570c       0x44 common/built-in.o
                0x000000000801570c                fit_get_node_from_config
 .text.fit_image_load
                0x0000000008015750      0x538 common/built-in.o
                0x0000000008015750                fit_image_load
 .text.boot_get_setup_fit
                0x0000000008015c88       0x6c common/built-in.o
                0x0000000008015c88                boot_get_setup_fit
 .text.get_effective_memsize
                0x0000000008015cf4        0x8 common/built-in.o
                0x0000000008015cf4                get_effective_memsize
 .text.nulldev_putc
                0x0000000008015cfc        0x4 common/built-in.o
 .text.nulldev_puts
                0x0000000008015d00        0x4 common/built-in.o
 .text.nulldev_input
                0x0000000008015d04        0x8 common/built-in.o
 .text.stdio_serial_tstc
                0x0000000008015d0c        0x4 common/built-in.o
 .text.stdio_serial_getc
                0x0000000008015d10        0x4 common/built-in.o
 .text.stdio_serial_puts
                0x0000000008015d14        0x8 common/built-in.o
 .text.stdio_serial_putc
                0x0000000008015d1c        0x8 common/built-in.o
 .text.stdio_get_by_name
                0x0000000008015d24       0x5c common/built-in.o
                0x0000000008015d24                stdio_get_by_name
 .text.stdio_clone
                0x0000000008015d80       0x38 common/built-in.o
                0x0000000008015d80                stdio_clone
 .text.stdio_register_dev
                0x0000000008015db8       0x50 common/built-in.o
                0x0000000008015db8                stdio_register_dev
 .text.stdio_register
                0x0000000008015e08        0x8 common/built-in.o
                0x0000000008015e08                stdio_register
 .text.stdio_init_tables
                0x0000000008015e10       0x1c common/built-in.o
                0x0000000008015e10                stdio_init_tables
 .text.stdio_add_devices
                0x0000000008015e2c       0xd0 common/built-in.o
                0x0000000008015e2c                stdio_add_devices
 .text.write_sparse_image
                0x0000000008015efc      0x390 common/built-in.o
                0x0000000008015efc                write_sparse_image
 .text.fastboot_fail
                0x000000000801628c       0x38 common/built-in.o
                0x000000000801628c                fastboot_fail
 .text.fastboot_okay
                0x00000000080162c4       0x38 common/built-in.o
                0x00000000080162c4                fastboot_okay
 .text.fb_mmc_flash_write
                0x00000000080162fc      0x2c8 common/built-in.o
                0x00000000080162fc                fb_mmc_flash_write
 .text.fb_mmc_erase
                0x00000000080165c4      0x180 common/built-in.o
                0x00000000080165c4                fb_mmc_erase
 .text.run_command
                0x0000000008016744       0x10 common/built-in.o
                0x0000000008016744                run_command
 .text.run_command_list
                0x0000000008016754       0x5c common/built-in.o
                0x0000000008016754                run_command_list
 .text.do_run   0x00000000080167b0       0x78 common/built-in.o
                0x00000000080167b0                do_run
 .text.cli_process_fdt
                0x0000000008016828       0x40 common/built-in.o
                0x0000000008016828                cli_process_fdt
 .text.cli_secure_boot_cmd
                0x0000000008016868       0x78 common/built-in.o
                0x0000000008016868                cli_secure_boot_cmd
 .text.cli_loop
                0x00000000080168e0        0xc common/built-in.o
                0x00000000080168e0                cli_loop
 .text.cli_init
                0x00000000080168ec        0x4 common/built-in.o
                0x00000000080168ec                cli_init
 .text.delete_char.part.0
                0x00000000080168f0       0xd0 common/built-in.o
 .text.cli_readline_into_buffer
                0x00000000080169c0      0x1f4 common/built-in.o
                0x00000000080169c0                cli_readline_into_buffer
 .text.cli_readline
                0x0000000008016bb4       0x14 common/built-in.o
                0x0000000008016bb4                cli_readline
 .text.find_cmd_tbl
                0x0000000008016bc8       0xa4 common/built-in.o
                0x0000000008016bc8                find_cmd_tbl
 .text.find_cmd
                0x0000000008016c6c       0x28 common/built-in.o
                0x0000000008016c6c                find_cmd
 .text.cmd_usage
                0x0000000008016c94       0x5c common/built-in.o
                0x0000000008016c94                cmd_usage
 .text._do_help
                0x0000000008016cf0      0x180 common/built-in.o
                0x0000000008016cf0                _do_help
 .text.cmd_get_data_size
                0x0000000008016e70       0x5c common/built-in.o
                0x0000000008016e70                cmd_get_data_size
 .text.cmd_process
                0x0000000008016ecc       0xbc common/built-in.o
                0x0000000008016ecc                cmd_process
 .text.common_diskboot
                0x0000000008016f88      0x2b8 common/built-in.o
                0x0000000008016f88                common_diskboot
 .text.get_dev_hwpart
                0x0000000008017240       0xb0 disk/built-in.o
 .text.print_part_header
                0x00000000080172f0       0xd4 disk/built-in.o
 .text.get_dev  0x00000000080173c4        0x8 disk/built-in.o
                0x00000000080173c4                get_dev
 .text.dev_print
                0x00000000080173cc      0x204 disk/built-in.o
                0x00000000080173cc                dev_print
 .text.init_part
                0x00000000080175d0       0x34 disk/built-in.o
                0x00000000080175d0                init_part
 .text.print_part
                0x0000000008017604       0x64 disk/built-in.o
                0x0000000008017604                print_part
 .text.get_partition_info
                0x0000000008017668       0x44 disk/built-in.o
                0x0000000008017668                get_partition_info
 .text.get_device
                0x00000000080176ac      0x114 disk/built-in.o
                0x00000000080176ac                get_device
 .text.get_device_and_partition
                0x00000000080177c0      0x448 disk/built-in.o
                0x00000000080177c0                get_device_and_partition
 .text.test_block_type
                0x0000000008017c08       0x84 disk/built-in.o
 .text.print_partition_extended
                0x0000000008017c8c      0x278 disk/built-in.o
 .text.get_partition_info_extended
                0x0000000008017f04      0x324 disk/built-in.o
 .text.test_part_dos
                0x0000000008018228       0x64 disk/built-in.o
                0x0000000008018228                test_part_dos
 .text.print_part_dos
                0x000000000801828c       0x34 disk/built-in.o
                0x000000000801828c                print_part_dos
 .text.get_partition_info_dos
                0x00000000080182c0       0x24 disk/built-in.o
                0x00000000080182c0                get_partition_info_dos
 .text.print_efiname
                0x00000000080182e4       0x58 disk/built-in.o
 .text.validate_gpt_entries
                0x000000000801833c       0x98 disk/built-in.o
 .text.validate_gpt_header
                0x00000000080183d4      0x228 disk/built-in.o
 .text.is_gpt_valid
                0x00000000080185fc      0x1c8 disk/built-in.o
 .text.is_pte_valid
                0x00000000080187c4       0x58 disk/built-in.o
 .text.print_part_efi
                0x000000000801881c      0x274 disk/built-in.o
                0x000000000801881c                print_part_efi
 .text.get_partition_info_efi
                0x0000000008018a90      0x200 disk/built-in.o
                0x0000000008018a90                get_partition_info_efi
 .text.get_partition_info_efi_by_name
                0x0000000008018c90       0x60 disk/built-in.o
                0x0000000008018c90                get_partition_info_efi_by_name
 .text.test_part_efi
                0x0000000008018cf0       0xd4 disk/built-in.o
                0x0000000008018cf0                test_part_efi
 .text.is_valid_gpt_buf
                0x0000000008018dc4       0x70 disk/built-in.o
                0x0000000008018dc4                is_valid_gpt_buf
 .text.write_mbr_and_gpt_partitions
                0x0000000008018e34      0x418 disk/built-in.o
                0x0000000008018e34                write_mbr_and_gpt_partitions
 .text.video_drawchars
                0x000000000801924c      0x434 drivers/built-in.o
 .text.console_newline.constprop.1
                0x0000000008019680       0xe0 drivers/built-in.o
 .text.video_putc
                0x0000000008019760      0x194 drivers/built-in.o
 .text.video_puts
                0x00000000080198f4       0x7c drivers/built-in.o
 .text.board_cfb_skip
                0x0000000008019970        0x8 drivers/built-in.o
                0x0000000008019970                board_cfb_skip
 .text.video_set_lut
                0x0000000008019978        0x4 drivers/built-in.o
                0x0000000008019978                video_set_lut
 .text.plot_logo_or_black
                0x000000000801997c      0x264 drivers/built-in.o
 .text.do_clrlogo
                0x0000000008019be0       0x58 drivers/built-in.o
 .text.video_display_bitmap
                0x0000000008019c38      0xa38 drivers/built-in.o
                0x0000000008019c38                video_display_bitmap
 .text.video_clear
                0x000000000801a670       0x54 drivers/built-in.o
                0x000000000801a670                video_clear
 .text.board_video_skip
                0x000000000801a6c4       0x20 drivers/built-in.o
                0x000000000801a6cc                board_video_skip
 .text.drv_video_init
                0x000000000801a6e4      0x41c drivers/built-in.o
                0x000000000801a6e4                drv_video_init
 .text.de_hw_reset
                0x000000000801ab00       0x30 drivers/built-in.o
                0x000000000801ab00                de_hw_reset
 .text.de_hw_init
                0x000000000801ab30      0x7dc drivers/built-in.o
                0x000000000801ab30                de_hw_init
 .text.owl_display_register
                0x000000000801b30c       0x8c drivers/built-in.o
                0x000000000801b30c                owl_display_register
 .text.disp_enable
                0x000000000801b398       0xa0 drivers/built-in.o
                0x000000000801b398                disp_enable
 .text.lcdi_convertion_get
                0x000000000801b438       0x1c drivers/built-in.o
                0x000000000801b438                lcdi_convertion_get
 .text.lcdi_convertion_enable
                0x000000000801b454       0x2c drivers/built-in.o
                0x000000000801b454                lcdi_convertion_enable
 .text.lcdi_convertion_disable
                0x000000000801b480       0x2c drivers/built-in.o
                0x000000000801b480                lcdi_convertion_disable
 .text.get_fb_heap_size
                0x000000000801b4ac       0x58 drivers/built-in.o
                0x000000000801b4ac                get_fb_heap_size
 .text.string_to_arrange_id
                0x000000000801b504       0x4c drivers/built-in.o
                0x000000000801b504                string_to_arrange_id
 .text.owl_dss_enable
                0x000000000801b550       0x50 drivers/built-in.o
                0x000000000801b550                owl_dss_enable
 .text.fdtdec_get_fb_par
                0x000000000801b5a0      0x18c drivers/built-in.o
                0x000000000801b5a0                fdtdec_get_fb_par
 .text.phy_write_gamma_ram_idx
                0x000000000801b72c       0x38 drivers/built-in.o
                0x000000000801b72c                phy_write_gamma_ram_idx
 .text.write_gamma_ram
                0x000000000801b764       0x48 drivers/built-in.o
                0x000000000801b764                write_gamma_ram
 .text.owl_dss_gamma_init
                0x000000000801b7ac       0x74 drivers/built-in.o
                0x000000000801b7ac                owl_dss_gamma_init
 .text.owl_dss_init
                0x000000000801b820      0x1b8 drivers/built-in.o
                0x000000000801b820                owl_dss_init
 .text.video_hw_init
                0x000000000801b9d8      0x140 drivers/built-in.o
                0x000000000801b9d8                video_hw_init
 .text.get_owl_reserved_size
                0x000000000801bb18       0x68 drivers/built-in.o
                0x000000000801bb18                get_owl_reserved_size
 .text.kinfo_init
                0x000000000801bb80       0x20 drivers/built-in.o
                0x000000000801bb80                kinfo_init
 .text.gpio_bit_to_pwr
                0x000000000801bba0       0x78 drivers/built-in.o
 .text.lcd_deactivate_gpio
                0x000000000801bc18       0x1c drivers/built-in.o
 .text.lcd_activate_gpio
                0x000000000801bc34       0x20 drivers/built-in.o
 .text.lvds_init
                0x000000000801bc54       0x38 drivers/built-in.o
                0x000000000801bc54                lvds_init
 .text.lvds_close
                0x000000000801bc8c       0x24 drivers/built-in.o
                0x000000000801bc8c                lvds_close
 .text.lcd_disable
                0x000000000801bcb0       0x94 drivers/built-in.o
                0x000000000801bcb0                lcd_disable
 .text.enable_lcdc
                0x000000000801bd44       0x1c drivers/built-in.o
                0x000000000801bd44                enable_lcdc
 .text.lcd_enable
                0x000000000801bd60      0x358 drivers/built-in.o
                0x000000000801bd60                lcd_enable
 .text.string_to_port_type
                0x000000000801c0b8       0x50 drivers/built-in.o
                0x000000000801c0b8                string_to_port_type
 .text.get_lcdic_type
                0x000000000801c108       0x1c drivers/built-in.o
                0x000000000801c108                get_lcdic_type
 .text.fdtdec_get_lcd_par
                0x000000000801c124      0x324 drivers/built-in.o
                0x000000000801c124                fdtdec_get_lcd_par
 .text.owl_lcd_init
                0x000000000801c448       0xd8 drivers/built-in.o
                0x000000000801c448                owl_lcd_init
 .text.set_lcd_bl_power
                0x000000000801c520       0x10 drivers/built-in.o
                0x000000000801c520                set_lcd_bl_power
 .text.dsi_deactivate_gpio
                0x000000000801c530       0x1c drivers/built-in.o
 .text.dsi_activate_gpio
                0x000000000801c54c       0x20 drivers/built-in.o
 .text.wait_lanes_stop
                0x000000000801c56c       0x48 drivers/built-in.o
 .text.dsi_disable
                0x000000000801c5b4       0x68 drivers/built-in.o
                0x000000000801c5b4                dsi_disable
 .text.get_dsi_data_width
                0x000000000801c61c       0x24 drivers/built-in.o
                0x000000000801c61c                get_dsi_data_width
 .text.enable_dsi
                0x000000000801c640       0x1c drivers/built-in.o
                0x000000000801c640                enable_dsi
 .text.power_enable
                0x000000000801c65c       0xcc drivers/built-in.o
                0x000000000801c65c                power_enable
 .text.dsi_enable
                0x000000000801c728      0x1ac drivers/built-in.o
                0x000000000801c728                dsi_enable
 .text.dsihw_send_short_packet
                0x000000000801c8d4       0x70 drivers/built-in.o
                0x000000000801c8d4                dsihw_send_short_packet
 .text.fdtdec_get_dsi_par
                0x000000000801c944      0x3e0 drivers/built-in.o
                0x000000000801c944                fdtdec_get_dsi_par
 .text.owl_dsi_init
                0x000000000801cd24       0xc4 drivers/built-in.o
                0x000000000801cd24                owl_dsi_init
 .text.send_short_cmd
                0x000000000801cde8       0x10 drivers/built-in.o
                0x000000000801cde8                send_short_cmd
 .text.send_short_cmd_1
                0x000000000801cdf8       0x14 drivers/built-in.o
                0x000000000801cdf8                send_short_cmd_1
 .text.send_cmd
                0x000000000801ce0c       0x34 drivers/built-in.o
                0x000000000801ce0c                send_cmd
 .text.hdmi_enable_output
                0x000000000801ce40       0x30 drivers/built-in.o
                0x000000000801ce40                hdmi_enable_output
 .text.hdmi_disable_output
                0x000000000801ce70       0x50 drivers/built-in.o
                0x000000000801ce70                hdmi_disable_output
 .text.hdmi_SetRamPacketPeriod
                0x000000000801cec0       0x78 drivers/built-in.o
                0x000000000801cec0                hdmi_SetRamPacketPeriod
 .text.hdmi_SetRamPacket
                0x000000000801cf38      0x1b0 drivers/built-in.o
                0x000000000801cf38                hdmi_SetRamPacket
 .text.hdmi_gen_gbd_infoframe
                0x000000000801d0e8      0x13c drivers/built-in.o
                0x000000000801d0e8                hdmi_gen_gbd_infoframe
 .text.hdmi_gen_vs_infoframe
                0x000000000801d224       0xf8 drivers/built-in.o
                0x000000000801d224                hdmi_gen_vs_infoframe
 .text.hdmi_get_vid
                0x000000000801d31c       0x44 drivers/built-in.o
                0x000000000801d31c                hdmi_get_vid
 .text.hdmi_gen_avi_infoframe
                0x000000000801d360      0x138 drivers/built-in.o
                0x000000000801d360                hdmi_gen_avi_infoframe
 .text.hdmi_get_aid
                0x000000000801d498       0x60 drivers/built-in.o
                0x000000000801d498                hdmi_get_aid
 .text.hdmi_gen_audio_infoframe
                0x000000000801d4f8       0xdc drivers/built-in.o
                0x000000000801d4f8                hdmi_gen_audio_infoframe
 .text.hdmi_get_mode
                0x000000000801d5d4       0x30 drivers/built-in.o
                0x000000000801d5d4                hdmi_get_mode
 .text.hdmi_set_clk
                0x000000000801d604      0x15c drivers/built-in.o
                0x000000000801d604                hdmi_set_clk
 .text.hdmi_phy_enable
                0x000000000801d760       0x1c drivers/built-in.o
                0x000000000801d760                hdmi_phy_enable
 .text.hdmi_set_tdms_ldo
                0x000000000801d77c      0x124 drivers/built-in.o
                0x000000000801d77c                hdmi_set_tdms_ldo
 .text.hdmi_set_outmode
                0x000000000801d8a0       0x34 drivers/built-in.o
                0x000000000801d8a0                hdmi_set_outmode
 .text.hdmi_gcp_cfg
                0x000000000801d8d4       0x48 drivers/built-in.o
                0x000000000801d8d4                hdmi_gcp_cfg
 .text.hdmi_audio_enable
                0x000000000801d91c       0x18 drivers/built-in.o
                0x000000000801d91c                hdmi_audio_enable
 .text.hdmi_acr_packet
                0x000000000801d934       0x8c drivers/built-in.o
                0x000000000801d934                hdmi_acr_packet
 .text.hdmi_audio_general_cfg
                0x000000000801d9c0       0x84 drivers/built-in.o
                0x000000000801d9c0                hdmi_audio_general_cfg
 .text.hdmi_aichsta_cfg
                0x000000000801da44       0xf8 drivers/built-in.o
                0x000000000801da44                hdmi_aichsta_cfg
 .text.hdmi_audioch_cfg
                0x000000000801db3c       0xa8 drivers/built-in.o
                0x000000000801db3c                hdmi_audioch_cfg
 .text.hdmi_ldo_and_pll_cfg
                0x000000000801dbe4       0x34 drivers/built-in.o
                0x000000000801dbe4                hdmi_ldo_and_pll_cfg
 .text.hdmi_video_general_cfg
                0x000000000801dc18      0x140 drivers/built-in.o
                0x000000000801dc18                hdmi_video_general_cfg
 .text.hdmi_audio_cfg
                0x000000000801dd58       0x48 drivers/built-in.o
                0x000000000801dd58                hdmi_audio_cfg
 .text.hdmi_video_cfg
                0x000000000801dda0       0x88 drivers/built-in.o
                0x000000000801dda0                hdmi_video_cfg
 .text.hdmi_general_cfg
                0x000000000801de28       0x2c drivers/built-in.o
                0x000000000801de28                hdmi_general_cfg
 .text.hdmi_get_plug_state
                0x000000000801de54       0x34 drivers/built-in.o
                0x000000000801de54                hdmi_get_plug_state
 .text.hdmi_init
                0x000000000801de88      0x2fc drivers/built-in.o
                0x000000000801de88                hdmi_init
 .text.get_edid_data
                0x000000000801e184       0x94 drivers/built-in.o
 .text.edid_checksum
                0x000000000801e218       0x50 drivers/built-in.o
                0x000000000801e218                edid_checksum
 .text.edid_header_check
                0x000000000801e268       0x78 drivers/built-in.o
                0x000000000801e268                edid_header_check
 .text.edid_version_check
                0x000000000801e2e0       0x38 drivers/built-in.o
                0x000000000801e2e0                edid_version_check
 .text.parse_dtd_block
                0x000000000801e318      0x1c8 drivers/built-in.o
                0x000000000801e318                parse_dtd_block
 .text.parse_videodata_block
                0x000000000801e4e0       0x30 drivers/built-in.o
                0x000000000801e4e0                parse_videodata_block
 .text.parse_hdmi_vsdb
                0x000000000801e510       0x6c drivers/built-in.o
                0x000000000801e510                parse_hdmi_vsdb
 .text.parse_edid
                0x000000000801e57c      0x2ac drivers/built-in.o
                0x000000000801e57c                parse_edid
 .text.check_hdmi_mode
                0x000000000801e828       0xb4 drivers/built-in.o
                0x000000000801e828                check_hdmi_mode
 .text.configure_pal
                0x000000000801e8dc       0x94 drivers/built-in.o
 .text.cvbs_enable
                0x000000000801e970       0x2c drivers/built-in.o
                0x000000000801e970                cvbs_enable
 .text.cvbs_disable
                0x000000000801e99c       0x24 drivers/built-in.o
                0x000000000801e99c                cvbs_disable
 .text.get_cvbs_state
                0x000000000801e9c0       0x3c drivers/built-in.o
                0x000000000801e9c0                get_cvbs_state
 .text.cvbs_read_usr_cfg_file
                0x000000000801e9fc      0x178 drivers/built-in.o
                0x000000000801e9fc                cvbs_read_usr_cfg_file
 .text.cvbs_init
                0x000000000801eb74      0x348 drivers/built-in.o
                0x000000000801eb74                cvbs_init
 .text.owl_pwm_backlight_update_status
                0x000000000801eebc       0xd8 drivers/built-in.o
                0x000000000801eebc                owl_pwm_backlight_update_status
 .text.owl_pwm_backlight_init
                0x000000000801ef94      0x140 drivers/built-in.o
                0x000000000801ef94                owl_pwm_backlight_init
 .text.splash_image_init
                0x000000000801f0d4      0x1b0 drivers/built-in.o
                0x000000000801f0d4                splash_image_init
 .text.count_onoff_short_press
                0x000000000801f284       0x8c drivers/built-in.o
                0x000000000801f284                count_onoff_short_press
 .text.reset_to_adfu
                0x000000000801f310       0x28 drivers/built-in.o
                0x000000000801f310                reset_to_adfu
 .text.check_key
                0x000000000801f338      0x2e8 drivers/built-in.o
                0x000000000801f338                check_key
 .text.owl_gpio_get_value
                0x000000000801f620       0x28 drivers/gpio/built-in.o
                0x000000000801f620                owl_gpio_get_value
 .text.owl_gpio_direction_input
                0x000000000801f648       0x48 drivers/gpio/built-in.o
                0x000000000801f648                owl_gpio_direction_input
 .text.owl_gpio_set_value
                0x000000000801f690       0x38 drivers/gpio/built-in.o
                0x000000000801f690                owl_gpio_set_value
 .text.owl_gpio_direction_output
                0x000000000801f6c8       0x50 drivers/gpio/built-in.o
                0x000000000801f6c8                owl_gpio_direction_output
 .text.owl_gpio_clr
                0x000000000801f718       0x48 drivers/gpio/built-in.o
                0x000000000801f718                owl_gpio_clr
 .text.owl_gpio_init
                0x000000000801f760      0x160 drivers/gpio/built-in.o
                0x000000000801f760                owl_gpio_init
 .text.owl_gpio_generic_direction_output
                0x000000000801f8c0       0x24 drivers/gpio/built-in.o
                0x000000000801f8c0                owl_gpio_generic_direction_output
 .text.owl_fdtdec_decode_gpios
                0x000000000801f8e4      0x108 drivers/gpio/built-in.o
                0x000000000801f8e4                owl_fdtdec_decode_gpios
 .text.owl_fdtdec_decode_gpio
                0x000000000801f9ec       0x34 drivers/gpio/built-in.o
                0x000000000801f9ec                owl_fdtdec_decode_gpio
 .text.gpiochip_add
                0x000000000801fa20       0x68 drivers/gpio/built-in.o
                0x000000000801fa20                gpiochip_add
 .text.i2c_set_bus_num
                0x000000000801fa88      0x1e8 drivers/i2c/built-in.o
                0x000000000801fa88                i2c_set_bus_num
 .text.i2c_transfer
                0x000000000801fc70      0x19c drivers/i2c/built-in.o
                0x000000000801fc70                i2c_transfer
 .text.i2c_probe
                0x000000000801fe0c       0x74 drivers/i2c/built-in.o
                0x000000000801fe0c                i2c_probe
 .text.i2c_read
                0x000000000801fe80       0x58 drivers/i2c/built-in.o
                0x000000000801fe80                i2c_read
 .text.i2c_write
                0x000000000801fed8       0x58 drivers/i2c/built-in.o
                0x000000000801fed8                i2c_write
 .text.board_i2c_init
                0x000000000801ff30       0x70 drivers/i2c/built-in.o
                0x000000000801ff30                board_i2c_init
 .text.mmc_set_ios
                0x000000000801ffa0       0x18 drivers/mmc/built-in.o
 .text.mmc_set_capacity
                0x000000000801ffb8       0xac drivers/mmc/built-in.o
 .text.board_mmc_getwp
                0x0000000008020064        0x8 drivers/mmc/built-in.o
                0x0000000008020064                board_mmc_getwp
 .text.mmc_getwp
                0x000000000802006c       0x3c drivers/mmc/built-in.o
                0x000000000802006c                mmc_getwp
 .text.board_mmc_getcd
                0x00000000080200a8        0x8 drivers/mmc/built-in.o
                0x00000000080200a8                board_mmc_getcd
 .text.mmc_send_cmd
                0x00000000080200b0       0x10 drivers/mmc/built-in.o
                0x00000000080200b0                mmc_send_cmd
 .text.mmc_send_ext_csd
                0x00000000080200c0       0x4c drivers/mmc/built-in.o
 .text.mmc_go_idle
                0x000000000802010c       0x4c drivers/mmc/built-in.o
 .text.mmc_send_op_cond_iter
                0x0000000008020158       0x80 drivers/mmc/built-in.o
 .text.mmc_send_status
                0x00000000080201d8       0xd0 drivers/mmc/built-in.o
                0x00000000080201d8                mmc_send_status
 .text.mmc_switch.isra.1
                0x00000000080202a8       0x54 drivers/mmc/built-in.o
 .text.mmc_set_blocklen
                0x00000000080202fc       0x40 drivers/mmc/built-in.o
                0x00000000080202fc                mmc_set_blocklen
 .text.find_mmc_device
                0x000000000802033c       0x4c drivers/mmc/built-in.o
                0x000000000802033c                find_mmc_device
 .text.mmc_bread
                0x0000000008020388      0x144 drivers/mmc/built-in.o
                0x0000000008020388                mmc_bread
 .text.mmc_switch_part
                0x00000000080204cc       0x58 drivers/mmc/built-in.o
                0x00000000080204cc                mmc_switch_part
 .text.mmc_select_hwpart
                0x0000000008020524       0x6c drivers/mmc/built-in.o
                0x0000000008020524                mmc_select_hwpart
 .text.mmc_hwpart_config
                0x0000000008020590      0x41c drivers/mmc/built-in.o
                0x0000000008020590                mmc_hwpart_config
 .text.mmc_getcd
                0x00000000080209ac       0x3c drivers/mmc/built-in.o
                0x00000000080209ac                mmc_getcd
 .text.mmc_set_clock
                0x00000000080209e8       0x24 drivers/mmc/built-in.o
                0x00000000080209e8                mmc_set_clock
 .text.mmc_startup
                0x0000000008020a0c      0xcbc drivers/mmc/built-in.o
 .text.mmc_create
                0x00000000080216c8       0xfc drivers/mmc/built-in.o
                0x00000000080216c8                mmc_create
 .text.board_mmc_power_init
                0x00000000080217c4        0x4 drivers/mmc/built-in.o
                0x00000000080217c4                board_mmc_power_init
 .text.mmc_start_init
                0x00000000080217c8      0x2b4 drivers/mmc/built-in.o
                0x00000000080217c8                mmc_start_init
 .text.mmc_init
                0x0000000008021a7c      0x100 drivers/mmc/built-in.o
                0x0000000008021a7c                mmc_init
 .text.mmc_get_dev
                0x0000000008021b7c       0x2c drivers/mmc/built-in.o
                0x0000000008021b7c                mmc_get_dev
 .text.mmc_set_dsr
                0x0000000008021ba8        0xc drivers/mmc/built-in.o
                0x0000000008021ba8                mmc_set_dsr
 .text.cpu_mmc_init
                0x0000000008021bb4        0x8 drivers/mmc/built-in.o
                0x0000000008021bb4                cpu_mmc_init
 .text.print_mmc_devices
                0x0000000008021bbc       0xc0 drivers/mmc/built-in.o
                0x0000000008021bbc                print_mmc_devices
 .text.get_mmc_num
                0x0000000008021c7c       0x10 drivers/mmc/built-in.o
                0x0000000008021c7c                get_mmc_num
 .text.mmc_initialize
                0x0000000008021c8c       0x74 drivers/mmc/built-in.o
                0x0000000008021c8c                mmc_initialize
 .text.owl_mmc_finish_request
                0x0000000008021d00       0x48 drivers/mmc/built-in.o
 .text.owl_dump_dmac.isra.0
                0x0000000008021d48       0xc8 drivers/mmc/built-in.o
 .text.owl_dump_mfp.isra.1
                0x0000000008021e10      0x124 drivers/mmc/built-in.o
 .text.owl_dump_sdc.isra.2
                0x0000000008021f34      0x124 drivers/mmc/built-in.o
 .text.owl_mmc_send_cmd
                0x0000000008022058      0x5ec drivers/mmc/built-in.o
 .text.module_clk_set.constprop.5
                0x0000000008022644       0x50 drivers/mmc/built-in.o
 .text.owl_mmc_init_setup
                0x0000000008022694      0x27c drivers/mmc/built-in.o
 .text.owl_mmc_set_ios
                0x0000000008022910      0x24c drivers/mmc/built-in.o
 .text.owl_sd_init
                0x0000000008022b5c      0x114 drivers/mmc/built-in.o
                0x0000000008022b5c                owl_sd_init
 .text.owl_mmc_init
                0x0000000008022c70      0x144 drivers/mmc/built-in.o
                0x0000000008022c70                owl_mmc_init
 .text.mmc_berase
                0x0000000008022db4      0x194 drivers/mmc/built-in.o
                0x0000000008022db4                mmc_berase
 .text.mmc_bwrite
                0x0000000008022f48      0x164 drivers/mmc/built-in.o
                0x0000000008022f48                mmc_bwrite
 .text.owl_mac_set_macaddr
                0x00000000080230ac       0xd0 drivers/net/built-in.o
 .text.owl_mac_recv
                0x000000000802317c       0x94 drivers/net/built-in.o
 .text.owl_mac_deactivate_gpio
                0x0000000008023210       0x1c drivers/net/built-in.o
 .text.owl_mac_halt
                0x000000000802322c       0x2c drivers/net/built-in.o
 .text.owl_mdio_read.isra.3
                0x0000000008023258       0x48 drivers/net/built-in.o
 .text.owl_mdio_write.isra.4
                0x00000000080232a0       0x48 drivers/net/built-in.o
 .text.owl_prepare_tx_bds.isra.5
                0x00000000080232e8       0x24 drivers/net/built-in.o
 .text.owl_mac_send
                0x000000000802330c      0x108 drivers/net/built-in.o
 .text.owl_mac_init
                0x0000000008023414      0x33c drivers/net/built-in.o
 .text.owl_mac_initialize
                0x0000000008023750      0x110 drivers/net/built-in.o
                0x0000000008023750                owl_mac_initialize
 .text.is_battery_exist
                0x0000000008023860       0x5c drivers/power/built-in.o
                0x0000000008023860                is_battery_exist
 .text.get_bat_voltage
                0x00000000080238bc       0x38 drivers/power/built-in.o
                0x00000000080238bc                get_bat_voltage
 .text.get_bat_capacity
                0x00000000080238f4       0x68 drivers/power/built-in.o
                0x00000000080238f4                get_bat_capacity
 .text.get_charge_plugin_status
                0x000000000802395c       0x8c drivers/power/built-in.o
                0x000000000802395c                get_charge_plugin_status
 .text.get_adaptor_type
                0x00000000080239e8       0x4c drivers/power/built-in.o
                0x00000000080239e8                get_adaptor_type
 .text.get_cfg_items
                0x0000000008023a34       0x7c drivers/power/built-in.o
                0x0000000008023a34                get_cfg_items
 .text.support_minicharger
                0x0000000008023ab0       0x3c drivers/power/built-in.o
                0x0000000008023ab0                support_minicharger
 .text.atc260x_shutoff
                0x0000000008023aec       0x28 drivers/power/built-in.o
                0x0000000008023aec                atc260x_shutoff
 .text.check_power
                0x0000000008023b14      0x1dc drivers/power/built-in.o
                0x0000000008023b14                check_power
 .text.bq27441_gasgauge_get_capacity
                0x0000000008023cf0       0x8c drivers/power/built-in.o
                0x0000000008023cf0                bq27441_gasgauge_get_capacity
 .text.hw_gauge_get_capacity
                0x0000000008023d7c        0x4 drivers/power/built-in.o
                0x0000000008023d7c                hw_gauge_get_capacity
 .text.serial_stub_start
                0x0000000008023d80        0xc drivers/serial/built-in.o
 .text.serial_stub_stop
                0x0000000008023d8c        0xc drivers/serial/built-in.o
 .text.serial_stub_putc
                0x0000000008023d98       0x10 drivers/serial/built-in.o
 .text.serial_stub_puts
                0x0000000008023da8       0x10 drivers/serial/built-in.o
 .text.serial_stub_getc
                0x0000000008023db8        0xc drivers/serial/built-in.o
                0x0000000008023db8                serial_stub_getc
 .text.serial_stub_tstc
                0x0000000008023dc4        0xc drivers/serial/built-in.o
                0x0000000008023dc4                serial_stub_tstc
 .text.get_current
                0x0000000008023dd0       0x40 drivers/serial/built-in.o
 .text.serial_null
                0x0000000008023e10        0x4 drivers/serial/built-in.o
                0x0000000008023e10                jz_serial_initialize
                0x0000000008023e10                bfin_serial_initialize
                0x0000000008023e10                p3mx_serial_initialize
                0x0000000008023e10                leon2_serial_initialize
                0x0000000008023e10                leon3_serial_initialize
                0x0000000008023e10                amirix_serial_initialize
                0x0000000008023e10                marvell_serial_initialize
                0x0000000008023e10                cpci750_serial_initialize
                0x0000000008023e10                ns16550_serial_initialize
                0x0000000008023e10                asc_serial_initialize
                0x0000000008023e10                altera_serial_initialize
                0x0000000008023e10                oc_serial_initialize
                0x0000000008023e10                sh_serial_initialize
                0x0000000008023e10                mxs_auart_initialize
                0x0000000008023e10                arm_dcc_initialize
                0x0000000008023e10                bmw_serial_initialize
                0x0000000008023e10                arc_serial_initialize
                0x0000000008023e10                mcf_serial_initialize
                0x0000000008023e10                lh7a40x_serial_initialize
                0x0000000008023e10                evb64260_serial_initialize
                0x0000000008023e10                lpc32xx_serial_initialize
                0x0000000008023e10                max3100_serial_initialize
                0x0000000008023e10                mpc85xx_serial_initialize
                0x0000000008023e10                imx_serial_initialize
                0x0000000008023e10                bfin_jtag_initialize
                0x0000000008023e10                cogent_serial_initialize
                0x0000000008023e10                clps7111_serial_initialize
                0x0000000008023e10                ml2_serial_initialize
                0x0000000008023e10                sandbox_serial_initialize
                0x0000000008023e10                s3c24xx_serial_initialize
                0x0000000008023e10                sconsole_serial_initialize
                0x0000000008023e10                uartlite_serial_initialize
                0x0000000008023e10                au1x00_serial_initialize
                0x0000000008023e10                pxa_serial_initialize
                0x0000000008023e10                atmel_serial_initialize
                0x0000000008023e10                pl01x_serial_initialize
                0x0000000008023e10                altera_jtag_serial_initialize
                0x0000000008023e10                mpc512x_serial_initialize
                0x0000000008023e10                s5p_serial_initialize
                0x0000000008023e10                zynq_serial_initialize
                0x0000000008023e10                sa1100_serial_initialize
                0x0000000008023e10                mpc8260_scc_serial_initialize
                0x0000000008023e10                mxc_serial_initialize
                0x0000000008023e10                iop480_serial_initialize
                0x0000000008023e10                mpc8xx_serial_initialize
                0x0000000008023e10                mpc8260_smc_serial_initialize
                0x0000000008023e10                mpc5xx_serial_initialize
 .text.serial_register
                0x0000000008023e14       0x18 drivers/serial/built-in.o
                0x0000000008023e14                serial_register
 .text.serial_stdio_init
                0x0000000008023e2c       0xa4 drivers/serial/built-in.o
                0x0000000008023e2c                serial_stdio_init
 .text.serial_assign
                0x0000000008023ed0       0x4c drivers/serial/built-in.o
                0x0000000008023ed0                serial_assign
 .text.serial_initialize
                0x0000000008023f1c       0xd0 drivers/serial/built-in.o
                0x0000000008023f1c                serial_initialize
 .text.serial_init
                0x0000000008023fec       0x20 drivers/serial/built-in.o
                0x0000000008023fec                serial_init
 .text.serial_setbrg
                0x000000000802400c       0x14 drivers/serial/built-in.o
                0x000000000802400c                serial_setbrg
 .text.on_baudrate
                0x0000000008024020       0xec drivers/serial/built-in.o
 .text.serial_getc
                0x000000000802410c       0x14 drivers/serial/built-in.o
                0x000000000802410c                serial_getc
 .text.serial_tstc
                0x0000000008024120       0x14 drivers/serial/built-in.o
                0x0000000008024120                serial_tstc
 .text.serial_putc
                0x0000000008024134       0x1c drivers/serial/built-in.o
                0x0000000008024134                serial_putc
 .text.serial_puts
                0x0000000008024150       0x1c drivers/serial/built-in.o
                0x0000000008024150                serial_puts
 .text.default_serial_puts
                0x000000000802416c       0x30 drivers/serial/built-in.o
                0x000000000802416c                default_serial_puts
 .text.owl_uboot_serial_getc
                0x000000000802419c       0x28 drivers/serial/built-in.o
 .text.owl_uboot_serial_setbrg
                0x00000000080241c4       0xfc drivers/serial/built-in.o
 .text.owl_uboot_serial_init
                0x00000000080242c0       0x10 drivers/serial/built-in.o
 .text.owl_serial_putc.isra.1
                0x00000000080242d0       0x30 drivers/serial/built-in.o
 .text.owl_uboot_serial_putc
                0x0000000008024300       0x44 drivers/serial/built-in.o
 .text.owl_uboot_serial_tstc
                0x0000000008024344       0x30 drivers/serial/built-in.o
 .text.owl_serial_initialize
                0x0000000008024374        0xc drivers/serial/built-in.o
                0x0000000008024374                owl_serial_initialize
 .text.default_serial_console
                0x0000000008024380        0xc drivers/serial/built-in.o
                0x0000000008024380                default_serial_console
 .text.spi_cs_activate
                0x000000000802438c       0x20 drivers/spi/built-in.o
                0x000000000802438c                spi_cs_activate
 .text.spi_cs_deactivate
                0x00000000080243ac       0x20 drivers/spi/built-in.o
                0x00000000080243ac                spi_cs_deactivate
 .text.owl_spi_wait_till_ready
                0x00000000080243cc       0x34 drivers/spi/built-in.o
                0x00000000080243cc                owl_spi_wait_till_ready
 .text.owl_spi_write_read_8bit
                0x0000000008024400       0x90 drivers/spi/built-in.o
                0x0000000008024400                owl_spi_write_read_8bit
 .text.owl_spi_write_read_32bit
                0x0000000008024490       0x90 drivers/spi/built-in.o
                0x0000000008024490                owl_spi_write_read_32bit
 .text.spi_xfer
                0x0000000008024520       0x84 drivers/spi/built-in.o
                0x0000000008024520                spi_xfer
 .text.usb_ep_autoconfig
                0x00000000080245a4      0x1f8 drivers/usb/gadget/built-in.o
                0x00000000080245a4                usb_ep_autoconfig
 .text.usb_ep_autoconfig_reset
                0x000000000802479c       0x38 drivers/usb/gadget/built-in.o
                0x000000000802479c                usb_ep_autoconfig_reset
 .text.usb_descriptor_fillbuf
                0x00000000080247d4       0x64 drivers/usb/gadget/built-in.o
                0x00000000080247d4                usb_descriptor_fillbuf
 .text.usb_gadget_get_string
                0x0000000008024838      0x188 drivers/usb/gadget/built-in.o
                0x0000000008024838                usb_gadget_get_string
 .text.dwc3_ep0_status_cmpl
                0x00000000080249c0        0x4 drivers/usb/gadget/built-in.o
 .text.dwc3_ep0_delegate_req
                0x00000000080249c4       0x10 drivers/usb/gadget/built-in.o
 .text.dwc3_gadget_ep0_enable
                0x00000000080249d4        0x8 drivers/usb/gadget/built-in.o
 .text.dwc3_gadget_ep0_disable
                0x00000000080249dc        0x8 drivers/usb/gadget/built-in.o
 .text.dwc3_gadget_get_frame
                0x00000000080249e4       0x14 drivers/usb/gadget/built-in.o
 .text.dwc3_gadget_set_selfpowered
                0x00000000080249f8       0x1c drivers/usb/gadget/built-in.o
 .text.setphy   0x0000000008024a14      0x11c drivers/usb/gadget/built-in.o
 .text.dwc3_gadget_run_stop
                0x0000000008024b30       0xc4 drivers/usb/gadget/built-in.o
 .text.dwc3_gadget_pullup
                0x0000000008024bf4       0x10 drivers/usb/gadget/built-in.o
 .text.dwc3_gadget_ep_alloc_request
                0x0000000008024c04       0x38 drivers/usb/gadget/built-in.o
 .text.dwc3_gadget_ep_free_request
                0x0000000008024c3c        0x8 drivers/usb/gadget/built-in.o
 .text.dwc3_gadget_init_hw_endpoints
                0x0000000008024c44      0x190 drivers/usb/gadget/built-in.o
 .text.dwc3_cache_hwparams.constprop.38
                0x0000000008024dd4       0x9c drivers/usb/gadget/built-in.o
 .text.dwc3_event_buffers_cleanup.constprop.40
                0x0000000008024e70       0x6c drivers/usb/gadget/built-in.o
 .text.dwc3_free_event_buffers.constprop.43
                0x0000000008024edc       0x48 drivers/usb/gadget/built-in.o
 .text.dwc3_prepare_trbs
                0x0000000008024f24      0x320 drivers/usb/gadget/built-in.o
 .text.dwc3_disconnect_gadget.constprop.54
                0x0000000008025244       0x28 drivers/usb/gadget/built-in.o
 .text.devm_kzalloc
                0x000000000802526c       0x28 drivers/usb/gadget/built-in.o
                0x000000000802526c                devm_kzalloc
 .text.dwc3_gadget_set_test_mode
                0x0000000008025294       0x3c drivers/usb/gadget/built-in.o
                0x0000000008025294                dwc3_gadget_set_test_mode
 .text.dwc3_gadget_set_link_state
                0x00000000080252d0       0xc0 drivers/usb/gadget/built-in.o
                0x00000000080252d0                dwc3_gadget_set_link_state
 .text.dwc3_gadget_wakeup
                0x0000000008025390       0xd4 drivers/usb/gadget/built-in.o
 .text.dwc3_gadget_resize_tx_fifos
                0x0000000008025464       0xa4 drivers/usb/gadget/built-in.o
                0x0000000008025464                dwc3_gadget_resize_tx_fifos
 .text.dwc3_gadget_giveback
                0x0000000008025508       0xa4 drivers/usb/gadget/built-in.o
                0x0000000008025508                dwc3_gadget_giveback
 .text.dwc3_send_gadget_generic_command
                0x00000000080255ac       0x60 drivers/usb/gadget/built-in.o
                0x00000000080255ac                dwc3_send_gadget_generic_command
 .text.dwc3_ep0_set_sel_cmpl
                0x000000000802560c       0x98 drivers/usb/gadget/built-in.o
 .text.dwc3_send_gadget_ep_cmd
                0x00000000080256a4       0x98 drivers/usb/gadget/built-in.o
                0x00000000080256a4                dwc3_send_gadget_ep_cmd
 .text.dwc3_ep0_start_trans
                0x000000000802573c      0x104 drivers/usb/gadget/built-in.o
 .text.__dwc3_ep0_do_control_status
                0x0000000008025840       0x80 drivers/usb/gadget/built-in.o
 .text.__dwc3_ep0_do_control_data
                0x00000000080258c0      0x108 drivers/usb/gadget/built-in.o
 .text.__dwc3_gadget_ep0_queue
                0x00000000080259c8       0xf4 drivers/usb/gadget/built-in.o
 .text.dwc3_gadget_ep0_queue
                0x0000000008025abc       0x30 drivers/usb/gadget/built-in.o
                0x0000000008025abc                dwc3_gadget_ep0_queue
 .text.dwc3_ep0_out_start
                0x0000000008025aec       0x4c drivers/usb/gadget/built-in.o
                0x0000000008025aec                dwc3_ep0_out_start
 .text.dwc3_stop_active_transfer
                0x0000000008025b38       0x94 drivers/usb/gadget/built-in.o
 .text.dwc3_gadget_ep_dequeue
                0x0000000008025bcc       0xb0 drivers/usb/gadget/built-in.o
 .text.dwc3_remove_requests
                0x0000000008025c7c       0x6c drivers/usb/gadget/built-in.o
 .text.__dwc3_gadget_ep_disable
                0x0000000008025ce8       0x60 drivers/usb/gadget/built-in.o
 .text.dwc3_gadget_ep_disable
                0x0000000008025d48       0xa4 drivers/usb/gadget/built-in.o
 .text.dwc3_endpoint_transfer_complete.isra.27.constprop.60
                0x0000000008025dec      0x294 drivers/usb/gadget/built-in.o
 .text.__dwc3_gadget_kick_transfer
                0x0000000008026080      0x178 drivers/usb/gadget/built-in.o
 .text.dwc3_gadget_ep_queue
                0x00000000080261f8      0x12c drivers/usb/gadget/built-in.o
 .text.__dwc3_gadget_ep_enable
                0x0000000008026324      0x2cc drivers/usb/gadget/built-in.o
 .text.dwc3_gadget_ep_enable
                0x00000000080265f0      0x1a8 drivers/usb/gadget/built-in.o
 .text.dwc3_gadget_reset_interrupt.constprop.52
                0x0000000008026798      0x1e4 drivers/usb/gadget/built-in.o
 .text.__dwc3_gadget_ep_set_halt
                0x000000000802697c       0xa4 drivers/usb/gadget/built-in.o
                0x000000000802697c                __dwc3_gadget_ep_set_halt
 .text.dwc3_ep0_stall_and_restart
                0x0000000008026a20       0x68 drivers/usb/gadget/built-in.o
 .text.dwc3_ep0_handle_feature
                0x0000000008026a88      0x178 drivers/usb/gadget/built-in.o
 .text.dwc3_ep0_interrupt
                0x0000000008026c00      0x62c drivers/usb/gadget/built-in.o
                0x0000000008026c00                dwc3_ep0_interrupt
 .text.dwc3_gadget_init
                0x000000000802722c      0x1d0 drivers/usb/gadget/built-in.o
                0x000000000802722c                dwc3_gadget_init
 .text.dwc3_set_mode
                0x00000000080273fc       0x24 drivers/usb/gadget/built-in.o
                0x00000000080273fc                dwc3_set_mode
 .text.dwc3_phy_init
                0x0000000008027420      0x1ac drivers/usb/gadget/built-in.o
                0x0000000008027420                dwc3_phy_init
 .text.owl_usb3_open_powergate
                0x00000000080275cc       0xa0 drivers/usb/gadget/built-in.o
                0x00000000080275cc                owl_usb3_open_powergate
 .text.dwc3_clk_init
                0x000000000802766c       0xe0 drivers/usb/gadget/built-in.o
                0x000000000802766c                dwc3_clk_init
 .text.dwc3_clk_exit
                0x000000000802774c       0x18 drivers/usb/gadget/built-in.o
                0x000000000802774c                dwc3_clk_exit
 .text.usb_gadget_handle_interrupts
                0x0000000008027764      0x598 drivers/usb/gadget/built-in.o
                0x0000000008027764                usb_gadget_handle_interrupts
 .text.usb_gadget_register_driver
                0x0000000008027cfc      0x5fc drivers/usb/gadget/built-in.o
                0x0000000008027cfc                usb_gadget_register_driver
 .text.usb_gadget_unregister_driver
                0x00000000080282f8       0x20 drivers/usb/gadget/built-in.o
                0x00000000080282f8                usb_gadget_unregister_driver
 .text.board_usb_init
                0x0000000008028318        0x8 drivers/usb/gadget/built-in.o
                0x0000000008028318                board_usb_init
 .text.count_configs
                0x0000000008028320       0x68 drivers/usb/gadget/built-in.o
 .text.collect_langs
                0x0000000008028388       0x50 drivers/usb/gadget/built-in.o
 .text.composite_setup_complete
                0x00000000080283d8        0x4 drivers/usb/gadget/built-in.o
 .text.composite_suspend
                0x00000000080283dc       0x80 drivers/usb/gadget/built-in.o
 .text.composite_resume
                0x000000000802845c       0x7c drivers/usb/gadget/built-in.o
 .text.lookup_string
                0x00000000080284d8       0x4c drivers/usb/gadget/built-in.o
 .text.composite_unbind
                0x0000000008028524      0x120 drivers/usb/gadget/built-in.o
 .text.g_dnl_unbind
                0x0000000008028644       0x3c drivers/usb/gadget/built-in.o
 .text.composite_bind
                0x0000000008028680      0x128 drivers/usb/gadget/built-in.o
 .text.g_dnl_do_config
                0x00000000080287a8       0x5c drivers/usb/gadget/built-in.o
 .text.reset_config.isra.6
                0x0000000008028804       0x5c drivers/usb/gadget/built-in.o
 .text.composite_disconnect
                0x0000000008028860       0x40 drivers/usb/gadget/built-in.o
 .text.composite_setup
                0x00000000080288a0      0x830 drivers/usb/gadget/built-in.o
 .text.usb_add_function
                0x00000000080290d0       0xc4 drivers/usb/gadget/built-in.o
                0x00000000080290d0                usb_add_function
 .text.usb_interface_id
                0x0000000008029194       0x28 drivers/usb/gadget/built-in.o
                0x0000000008029194                usb_interface_id
 .text.usb_add_config
                0x00000000080291bc       0xcc drivers/usb/gadget/built-in.o
                0x00000000080291bc                usb_add_config
 .text.usb_string_id
                0x0000000008029288       0x20 drivers/usb/gadget/built-in.o
                0x0000000008029288                usb_string_id
 .text.usb_composite_register
                0x00000000080292a8       0x60 drivers/usb/gadget/built-in.o
                0x00000000080292a8                usb_composite_register
 .text.usb_composite_unregister
                0x0000000008029308       0x30 drivers/usb/gadget/built-in.o
                0x0000000008029308                usb_composite_unregister
 .text.g_dnl_set_serialnumber
                0x0000000008029338       0x48 drivers/usb/gadget/built-in.o
                0x0000000008029338                g_dnl_set_serialnumber
 .text.g_dnl_get_board_bcd_device_number
                0x0000000008029380        0x4 drivers/usb/gadget/built-in.o
                0x0000000008029380                g_dnl_get_board_bcd_device_number
 .text.g_dnl_bind
                0x0000000008029384      0x15c drivers/usb/gadget/built-in.o
 .text.g_dnl_board_usb_cable_connected
                0x00000000080294e0        0x8 drivers/usb/gadget/built-in.o
                0x00000000080294e0                g_dnl_board_usb_cable_connected
 .text.g_dnl_detach
                0x00000000080294e8       0x10 drivers/usb/gadget/built-in.o
                0x00000000080294e8                g_dnl_detach
 .text.g_dnl_trigger_detach
                0x00000000080294f8       0x14 drivers/usb/gadget/built-in.o
                0x00000000080294f8                g_dnl_trigger_detach
 .text.g_dnl_clear_detach
                0x000000000802950c       0x14 drivers/usb/gadget/built-in.o
                0x000000000802950c                g_dnl_clear_detach
 .text.g_dnl_register
                0x0000000008029520       0x40 drivers/usb/gadget/built-in.o
                0x0000000008029520                g_dnl_register
 .text.g_dnl_unregister
                0x0000000008029560        0xc drivers/usb/gadget/built-in.o
                0x0000000008029560                g_dnl_unregister
 .text.raise_exception
                0x000000000802956c       0x20 drivers/usb/gadget/built-in.o
 .text.ep0_queue
                0x000000000802958c       0x2c drivers/usb/gadget/built-in.o
 .text.bulk_in_complete
                0x00000000080295b8       0x44 drivers/usb/gadget/built-in.o
 .text.bulk_out_complete
                0x00000000080295fc       0x44 drivers/usb/gadget/built-in.o
 .text.fsg_set_alt
                0x0000000008029640       0x20 drivers/usb/gadget/built-in.o
 .text.fsg_disable
                0x0000000008029660       0x14 drivers/usb/gadget/built-in.o
 .text.fsg_setup
                0x0000000008029674       0xf0 drivers/usb/gadget/built-in.o
 .text.fsg_unbind
                0x0000000008029764       0x44 drivers/usb/gadget/built-in.o
 .text.store_cdrom_address
                0x00000000080297a8       0x88 drivers/usb/gadget/built-in.o
 .text.fsg_set_halt.isra.9
                0x0000000008029830       0x10 drivers/usb/gadget/built-in.o
 .text.start_transfer.isra.11
                0x0000000008029840       0x40 drivers/usb/gadget/built-in.o
 .text.halt_bulk_in_endpoint.isra.16
                0x0000000008029880       0x38 drivers/usb/gadget/built-in.o
 .text.sleep_thread.isra.19
                0x00000000080298b8      0x108 drivers/usb/gadget/built-in.o
 .text.do_read  0x00000000080299c0      0x22c drivers/usb/gadget/built-in.o
 .text.do_write
                0x0000000008029bec      0x374 drivers/usb/gadget/built-in.o
 .text.send_status
                0x0000000008029f60       0xe0 drivers/usb/gadget/built-in.o
 .text.check_command.isra.20
                0x000000000802a040      0x180 drivers/usb/gadget/built-in.o
 .text.do_mode_sense.isra.22
                0x000000000802a1c0      0x188 drivers/usb/gadget/built-in.o
 .text.fsg_add  0x000000000802a348      0x280 drivers/usb/gadget/built-in.o
                0x000000000802a348                fsg_add
 .text.do_set_interface
                0x000000000802a5c8      0x250 drivers/usb/gadget/built-in.o
 .text.fsg_main_thread
                0x000000000802a818     0x1218 drivers/usb/gadget/built-in.o
                0x000000000802a818                fsg_main_thread
 .text.usb_copy_descriptors
                0x000000000802ba30       0x80 drivers/usb/gadget/built-in.o
                0x000000000802ba30                usb_copy_descriptors
 .text.fsg_bind
                0x000000000802bab0       0xf4 drivers/usb/gadget/built-in.o
 .text.fsg_init
                0x000000000802bba4       0x14 drivers/usb/gadget/built-in.o
                0x000000000802bba4                fsg_init
 .text.rx_bytes_expected
                0x000000000802bbb8       0x6c drivers/usb/gadget/built-in.o
 .text.fastboot_start_ep
                0x000000000802bc24       0x70 drivers/usb/gadget/built-in.o
 .text.fastboot_unbind
                0x000000000802bc94       0x18 drivers/usb/gadget/built-in.o
 .text.fastboot_add
                0x000000000802bcac       0xc8 drivers/usb/gadget/built-in.o
 .text.fastboot_disable
                0x000000000802bd74       0x8c drivers/usb/gadget/built-in.o
 .text.fastboot_complete
                0x000000000802be00       0x28 drivers/usb/gadget/built-in.o
 .text.do_exit_on_complete
                0x000000000802be28        0x4 drivers/usb/gadget/built-in.o
 .text.do_bootm_on_complete
                0x000000000802be2c       0x78 drivers/usb/gadget/built-in.o
 .text.compl_do_reset
                0x000000000802bea4       0x14 drivers/usb/gadget/built-in.o
 .text.strcmp_l1
                0x000000000802beb8       0x38 drivers/usb/gadget/built-in.o
 .text.fastboot_tx_write_str
                0x000000000802bef0       0x6c drivers/usb/gadget/built-in.o
 .text.rx_handler_command
                0x000000000802bf5c      0x110 drivers/usb/gadget/built-in.o
 .text.cb_continue
                0x000000000802c06c       0x28 drivers/usb/gadget/built-in.o
 .text.cb_boot  0x000000000802c094       0x28 drivers/usb/gadget/built-in.o
 .text.cb_download
                0x000000000802c0bc      0x108 drivers/usb/gadget/built-in.o
 .text.rx_handler_dl_image
                0x000000000802c1c4      0x168 drivers/usb/gadget/built-in.o
 .text.cb_reboot
                0x000000000802c32c       0x28 drivers/usb/gadget/built-in.o
 .text.cb_getvar
                0x000000000802c354      0x190 drivers/usb/gadget/built-in.o
 .text.fastboot_bind
                0x000000000802c4e4       0xd4 drivers/usb/gadget/built-in.o
 .text.fastboot_set_alt
                0x000000000802c5b8      0x140 drivers/usb/gadget/built-in.o
 .text.cb_oem   0x000000000802c6f8       0x98 drivers/usb/gadget/built-in.o
 .text.cb_erase
                0x000000000802c790       0x84 drivers/usb/gadget/built-in.o
 .text.cb_flash
                0x000000000802c814       0x94 drivers/usb/gadget/built-in.o
 .text.handshake
                0x000000000802c8a8       0x58 drivers/usb/host/built-in.o
 .text.xhci_configure_endpoints
                0x000000000802c900       0xf0 drivers/usb/host/built-in.o
 .text.xhci_get_ep_index
                0x000000000802c9f0       0x28 drivers/usb/host/built-in.o
 .text.xhci_reset
                0x000000000802ca18       0xbc drivers/usb/host/built-in.o
                0x000000000802ca18                xhci_reset
 .text.usb_alloc_device
                0x000000000802cad4       0xc8 drivers/usb/host/built-in.o
                0x000000000802cad4                usb_alloc_device
 .text.xhci_check_maxpacket
                0x000000000802cb9c       0xc0 drivers/usb/host/built-in.o
                0x000000000802cb9c                xhci_check_maxpacket
 .text.submit_int_msg
                0x000000000802cc5c        0x8 drivers/usb/host/built-in.o
                0x000000000802cc5c                submit_int_msg
 .text.submit_bulk_msg
                0x000000000802cc64       0x3c drivers/usb/host/built-in.o
                0x000000000802cc64                submit_bulk_msg
 .text.submit_control_msg
                0x000000000802cca0      0x7d8 drivers/usb/host/built-in.o
                0x000000000802cca0                submit_control_msg
 .text.usb_lowlevel_init
                0x000000000802d478      0x194 drivers/usb/host/built-in.o
                0x000000000802d478                usb_lowlevel_init
 .text.usb_lowlevel_stop
                0x000000000802d60c       0x60 drivers/usb/host/built-in.o
                0x000000000802d60c                usb_lowlevel_stop
 .text.xhci_link_segments
                0x000000000802d66c       0x44 drivers/usb/host/built-in.o
 .text.xhci_ring_free
                0x000000000802d6b0       0x8c drivers/usb/host/built-in.o
 .text.xhci_flush_cache
                0x000000000802d73c       0x50 drivers/usb/host/built-in.o
                0x000000000802d73c                xhci_flush_cache
 .text.xhci_malloc
                0x000000000802d78c       0x6c drivers/usb/host/built-in.o
 .text.xhci_segment_alloc
                0x000000000802d7f8       0x5c drivers/usb/host/built-in.o
 .text.xhci_alloc_container_ctx.isra.5
                0x000000000802d854       0xb8 drivers/usb/host/built-in.o
 .text.xhci_inval_cache
                0x000000000802d90c       0x50 drivers/usb/host/built-in.o
                0x000000000802d90c                xhci_inval_cache
 .text.xhci_cleanup
                0x000000000802d95c      0x100 drivers/usb/host/built-in.o
                0x000000000802d95c                xhci_cleanup
 .text.xhci_ring_alloc
                0x000000000802da5c       0xf8 drivers/usb/host/built-in.o
                0x000000000802da5c                xhci_ring_alloc
 .text.xhci_alloc_virt_device
                0x000000000802db54       0xe4 drivers/usb/host/built-in.o
                0x000000000802db54                xhci_alloc_virt_device
 .text.xhci_mem_init
                0x000000000802dc38      0x1b0 drivers/usb/host/built-in.o
                0x000000000802dc38                xhci_mem_init
 .text.xhci_get_input_control_ctx
                0x000000000802dde8       0x44 drivers/usb/host/built-in.o
                0x000000000802dde8                xhci_get_input_control_ctx
 .text.xhci_get_slot_ctx
                0x000000000802de2c       0x34 drivers/usb/host/built-in.o
                0x000000000802de2c                xhci_get_slot_ctx
 .text.xhci_get_ep_ctx
                0x000000000802de60       0x30 drivers/usb/host/built-in.o
                0x000000000802de60                xhci_get_ep_ctx
 .text.xhci_endpoint_copy
                0x000000000802de90       0x54 drivers/usb/host/built-in.o
                0x000000000802de90                xhci_endpoint_copy
 .text.xhci_slot_copy
                0x000000000802dee4       0x44 drivers/usb/host/built-in.o
                0x000000000802dee4                xhci_slot_copy
 .text.xhci_setup_addressable_virt_dev
                0x000000000802df28      0x1a8 drivers/usb/host/built-in.o
                0x000000000802df28                xhci_setup_addressable_virt_dev
 .text.record_transfer_result
                0x000000000802e0d0       0xc4 drivers/usb/host/built-in.o
 .text.prepare_ring
                0x000000000802e194      0x134 drivers/usb/host/built-in.o
 .text.queue_trb
                0x000000000802e2c8      0x124 drivers/usb/host/built-in.o
 .text.xhci_queue_command
                0x000000000802e3ec       0xa4 drivers/usb/host/built-in.o
                0x000000000802e3ec                xhci_queue_command
 .text.xhci_acknowledge_event
                0x000000000802e490       0xc8 drivers/usb/host/built-in.o
                0x000000000802e490                xhci_acknowledge_event
 .text.xhci_wait_for_event
                0x000000000802e558      0x110 drivers/usb/host/built-in.o
                0x000000000802e558                xhci_wait_for_event
 .text.abort_td
                0x000000000802e668      0x15c drivers/usb/host/built-in.o
 .text.xhci_bulk_tx
                0x000000000802e7c4      0x378 drivers/usb/host/built-in.o
                0x000000000802e7c4                xhci_bulk_tx
 .text.xhci_ctrl_tx
                0x000000000802eb3c      0x394 drivers/usb/host/built-in.o
                0x000000000802eb3c                xhci_ctrl_tx
 .text.disable_bias
                0x000000000802eed0       0x24 drivers/usb/host/built-in.o
                0x000000000802eed0                disable_bias
 .text.enable_bias
                0x000000000802eef4       0x18 drivers/usb/host/built-in.o
                0x000000000802eef4                enable_bias
 .text.xhci_hcd_init
                0x000000000802ef0c      0x200 drivers/usb/host/built-in.o
                0x000000000802ef0c                xhci_hcd_init
 .text.xhci_hcd_stop
                0x000000000802f10c       0x44 drivers/usb/host/built-in.o
                0x000000000802f10c                xhci_hcd_stop
 .text.fs_probe_unsupported
                0x000000000802f150       0x18 fs/built-in.o
 .text.fs_ls_unsupported
                0x000000000802f168        0x8 fs/built-in.o
 .text.fs_exists_unsupported
                0x000000000802f170        0x8 fs/built-in.o
 .text.fs_size_unsupported
                0x000000000802f178        0x8 fs/built-in.o
 .text.fs_read_unsupported
                0x000000000802f180        0x8 fs/built-in.o
 .text.fs_write_unsupported
                0x000000000802f188        0x8 fs/built-in.o
 .text.fs_close_unsupported
                0x000000000802f190        0x4 fs/built-in.o
 .text.fs_uuid_unsupported
                0x000000000802f194        0x8 fs/built-in.o
 .text.fs_get_info
                0x000000000802f19c       0x34 fs/built-in.o
 .text.fs_close
                0x000000000802f1d0       0x28 fs/built-in.o
 .text.fs_set_blk_dev
                0x000000000802f1f8       0xb4 fs/built-in.o
                0x000000000802f1f8                fs_set_blk_dev
 .text.fs_ls    0x000000000802f2ac       0x3c fs/built-in.o
                0x000000000802f2ac                fs_ls
 .text.fs_exists
                0x000000000802f2e8       0x34 fs/built-in.o
                0x000000000802f2e8                fs_exists
 .text.fs_size  0x000000000802f31c       0x3c fs/built-in.o
                0x000000000802f31c                fs_size
 .text.fs_read  0x000000000802f358       0xa8 fs/built-in.o
                0x000000000802f358                fs_read
 .text.fs_write
                0x000000000802f400       0x88 fs/built-in.o
                0x000000000802f400                fs_write
 .text.do_size  0x000000000802f488       0x60 fs/built-in.o
                0x000000000802f488                do_size
 .text.do_load  0x000000000802f4e8      0x238 fs/built-in.o
                0x000000000802f4e8                do_load
 .text.do_ls    0x000000000802f720       0x68 fs/built-in.o
                0x000000000802f720                do_ls
 .text.file_exists
                0x000000000802f788       0x2c fs/built-in.o
                0x000000000802f788                file_exists
 .text.do_save  0x000000000802f7b4      0x184 fs/built-in.o
                0x000000000802f7b4                do_save
 .text.do_fs_type
                0x000000000802f938       0x78 fs/built-in.o
                0x000000000802f938                do_fs_type
 .text.get_fs   0x000000000802f9b0        0xc fs/built-in.o
                0x000000000802f9b0                get_fs
 .text.ext4fs_free_node
                0x000000000802f9bc       0x20 fs/built-in.o
                0x000000000802f9bc                ext4fs_free_node
 .text.ext4fs_read_file
                0x000000000802f9dc      0x3a4 fs/built-in.o
                0x000000000802f9dc                ext4fs_read_file
 .text.ext4fs_ls
                0x000000000802fd80       0x78 fs/built-in.o
                0x000000000802fd80                ext4fs_ls
 .text.ext4fs_exists
                0x000000000802fdf8       0x1c fs/built-in.o
                0x000000000802fdf8                ext4fs_exists
 .text.ext4fs_size
                0x000000000802fe14        0x4 fs/built-in.o
                0x000000000802fe14                ext4fs_size
 .text.ext4fs_read
                0x000000000802fe18       0x64 fs/built-in.o
                0x000000000802fe18                ext4fs_read
 .text.ext4fs_probe
                0x000000000802fe7c       0x30 fs/built-in.o
                0x000000000802fe7c                ext4fs_probe
 .text.ext4_read_file
                0x000000000802feac       0x7c fs/built-in.o
                0x000000000802feac                ext4_read_file
 .text.ext4fs_uuid
                0x000000000802ff28       0x38 fs/built-in.o
                0x000000000802ff28                ext4fs_uuid
 .text.ext4fs_read_inode
                0x000000000802ff60      0x134 fs/built-in.o
                0x000000000802ff60                ext4fs_read_inode
 .text.read_allocated_block
                0x0000000008030094      0x94c fs/built-in.o
                0x0000000008030094                read_allocated_block
 .text.ext4fs_reinit_global
                0x00000000080309e0       0xbc fs/built-in.o
                0x00000000080309e0                ext4fs_reinit_global
 .text.ext4fs_close
                0x0000000008030a9c       0x60 fs/built-in.o
                0x0000000008030a9c                ext4fs_close
 .text.ext4fs_iterate_dir
                0x0000000008030afc      0x2ac fs/built-in.o
                0x0000000008030afc                ext4fs_iterate_dir
 .text.ext4fs_find_file1
                0x0000000008030da8      0x2a4 fs/built-in.o
 .text.ext4fs_find_file
                0x000000000803104c       0x78 fs/built-in.o
                0x000000000803104c                ext4fs_find_file
 .text.ext4fs_open
                0x00000000080310c4       0xac fs/built-in.o
                0x00000000080310c4                ext4fs_open
 .text.ext4fs_mount
                0x0000000008031170       0xc4 fs/built-in.o
                0x0000000008031170                ext4fs_mount
 .text.ext4fs_set_blk_dev
                0x0000000008031234       0x6c fs/built-in.o
                0x0000000008031234                ext4fs_set_blk_dev
 .text.ext4fs_devread
                0x00000000080312a0      0x24c fs/built-in.o
                0x00000000080312a0                ext4fs_devread
 .text.ext4_read_superblock
                0x00000000080314ec       0x3c fs/built-in.o
                0x00000000080314ec                ext4_read_superblock
 .text.downcase
                0x0000000008031528       0x30 fs/built-in.o
 .text.disk_read
                0x0000000008031558       0x64 fs/built-in.o
 .text.dirdelim
                0x00000000080315bc       0x30 fs/built-in.o
 .text.get_fatent
                0x00000000080315ec      0x154 fs/built-in.o
 .text.mkcksum  0x0000000008031740       0x50 fs/built-in.o
 .text.disk_write
                0x0000000008031790       0x84 fs/built-in.o
 .text.flush_fat_buffer
                0x0000000008031814       0x80 fs/built-in.o
 .text.set_fatent_value
                0x0000000008031894      0x114 fs/built-in.o
 .text.get_fatent_value
                0x00000000080319a8      0x1c8 fs/built-in.o
 .text.get_cluster
                0x0000000008031b70      0x170 fs/built-in.o
 .text.get_name
                0x0000000008031ce0       0xac fs/built-in.o
 .text.set_cluster
                0x0000000008031d8c       0xc4 fs/built-in.o
 .text.set_contents
                0x0000000008031e50      0x280 fs/built-in.o
 .text.read_bootsectandvi
                0x00000000080320d0      0x128 fs/built-in.o
 .text.set_name
                0x00000000080321f8      0x13c fs/built-in.o
 .text.check_overflow
                0x0000000008032334       0xac fs/built-in.o
 .text.slot2str
                0x00000000080323e0       0xbc fs/built-in.o
 .text.get_vfatname
                0x000000000803249c      0x1b8 fs/built-in.o
 .text.flush_dir_table.constprop.7
                0x0000000008032654       0xe0 fs/built-in.o
 .text.do_fat_write
                0x0000000008032734      0x974 fs/built-in.o
 .text.fat_set_blk_dev
                0x00000000080330a8       0xcc fs/built-in.o
                0x00000000080330a8                fat_set_blk_dev
 .text.fat_register_device
                0x0000000008033174       0x8c fs/built-in.o
                0x0000000008033174                fat_register_device
 .text.do_fat_read_at
                0x0000000008033200      0xc54 fs/built-in.o
                0x0000000008033200                do_fat_read_at
 .text.do_fat_read
                0x0000000008033e54       0x3c fs/built-in.o
                0x0000000008033e54                do_fat_read
 .text.file_fat_detectfs
                0x0000000008033e90      0x148 fs/built-in.o
                0x0000000008033e90                file_fat_detectfs
 .text.file_fat_ls
                0x0000000008033fd8       0x2c fs/built-in.o
                0x0000000008033fd8                file_fat_ls
 .text.fat_exists
                0x0000000008034004       0x44 fs/built-in.o
                0x0000000008034004                fat_exists
 .text.fat_size
                0x0000000008034048       0x38 fs/built-in.o
                0x0000000008034048                fat_size
 .text.file_fat_read_at
                0x0000000008034080       0x60 fs/built-in.o
                0x0000000008034080                file_fat_read_at
 .text.file_fat_read
                0x00000000080340e0       0x38 fs/built-in.o
                0x00000000080340e0                file_fat_read
 .text.fat_read_file
                0x0000000008034118       0x48 fs/built-in.o
                0x0000000008034118                fat_read_file
 .text.fat_close
                0x0000000008034160        0x4 fs/built-in.o
                0x0000000008034160                fat_close
 .text.file_fat_write
                0x0000000008034164       0x5c fs/built-in.o
                0x0000000008034164                file_fat_write
 .text.zcalloc  0x00000000080341c0        0x8 lib/built-in.o
                0x00000000080341c0                zcalloc
 .text.zcfree   0x00000000080341c8        0x8 lib/built-in.o
                0x00000000080341c8                zcfree
 .text.inflate_fast
                0x00000000080341d0      0x590 lib/built-in.o
                0x00000000080341d0                inflate_fast
 .text.inflate_table
                0x0000000008034760      0x548 lib/built-in.o
                0x0000000008034760                inflate_table
 .text.inflateReset
                0x0000000008034ca8       0x78 lib/built-in.o
                0x0000000008034ca8                inflateReset
 .text.inflateInit2_
                0x0000000008034d20      0x104 lib/built-in.o
                0x0000000008034d20                inflateInit2_
 .text.inflateEnd
                0x0000000008034e24       0x68 lib/built-in.o
                0x0000000008034e24                inflateEnd
 .text.adler32  0x0000000008034e8c      0x338 lib/built-in.o
                0x0000000008034e8c                adler32
 .text.inflate  0x00000000080351c4     0x1500 lib/built-in.o
                0x00000000080351c4                inflate
 .text.fdt_check_header
                0x00000000080366c4       0x74 lib/built-in.o
                0x00000000080366c4                fdt_check_header
 .text.fdt_offset_ptr
                0x0000000008036738       0x4c lib/built-in.o
                0x0000000008036738                fdt_offset_ptr
 .text.fdt_next_tag
                0x0000000008036784       0xfc lib/built-in.o
                0x0000000008036784                fdt_next_tag
 .text._fdt_check_node_offset
                0x0000000008036880       0x3c lib/built-in.o
                0x0000000008036880                _fdt_check_node_offset
 .text._fdt_check_prop_offset
                0x00000000080368bc       0x3c lib/built-in.o
                0x00000000080368bc                _fdt_check_prop_offset
 .text.fdt_next_node
                0x00000000080368f8       0xb8 lib/built-in.o
                0x00000000080368f8                fdt_next_node
 .text.fdt_first_subnode
                0x00000000080369b0       0x34 lib/built-in.o
                0x00000000080369b0                fdt_first_subnode
 .text.fdt_next_subnode
                0x00000000080369e4       0x50 lib/built-in.o
                0x00000000080369e4                fdt_next_subnode
 .text._fdt_find_string
                0x0000000008036a34       0x5c lib/built-in.o
                0x0000000008036a34                _fdt_find_string
 .text.fdt_move
                0x0000000008036a90       0x48 lib/built-in.o
                0x0000000008036a90                fdt_move
 .text._nextprop
                0x0000000008036ad8       0x5c lib/built-in.o
 .text.fdt_string
                0x0000000008036b34       0x14 lib/built-in.o
                0x0000000008036b34                fdt_string
 .text.fdt_get_mem_rsv
                0x0000000008036b48       0x60 lib/built-in.o
                0x0000000008036b48                fdt_get_mem_rsv
 .text.fdt_num_mem_rsv
                0x0000000008036ba8       0x3c lib/built-in.o
                0x0000000008036ba8                fdt_num_mem_rsv
 .text.fdt_subnode_offset_namelen
                0x0000000008036be4       0xd0 lib/built-in.o
                0x0000000008036be4                fdt_subnode_offset_namelen
 .text.fdt_subnode_offset
                0x0000000008036cb4       0x30 lib/built-in.o
                0x0000000008036cb4                fdt_subnode_offset
 .text.fdt_get_name
                0x0000000008036ce4       0x74 lib/built-in.o
                0x0000000008036ce4                fdt_get_name
 .text.fdt_first_property_offset
                0x0000000008036d58       0x20 lib/built-in.o
                0x0000000008036d58                fdt_first_property_offset
 .text.fdt_next_property_offset
                0x0000000008036d78       0x20 lib/built-in.o
                0x0000000008036d78                fdt_next_property_offset
 .text.fdt_get_property_by_offset
                0x0000000008036d98       0x54 lib/built-in.o
                0x0000000008036d98                fdt_get_property_by_offset
 .text.fdt_get_property_namelen
                0x0000000008036dec       0xb8 lib/built-in.o
                0x0000000008036dec                fdt_get_property_namelen
 .text.fdt_get_property
                0x0000000008036ea4       0x3c lib/built-in.o
                0x0000000008036ea4                fdt_get_property
 .text.fdt_getprop_namelen
                0x0000000008036ee0       0x20 lib/built-in.o
                0x0000000008036ee0                fdt_getprop_namelen
 .text.fdt_getprop
                0x0000000008036f00       0x3c lib/built-in.o
                0x0000000008036f00                fdt_getprop
 .text.fdt_get_phandle
                0x0000000008036f3c       0x70 lib/built-in.o
                0x0000000008036f3c                fdt_get_phandle
 .text.fdt_get_alias_namelen
                0x0000000008036fac       0x48 lib/built-in.o
                0x0000000008036fac                fdt_get_alias_namelen
 .text.fdt_path_offset
                0x0000000008036ff4       0xec lib/built-in.o
                0x0000000008036ff4                fdt_path_offset
 .text.fdt_supernode_atdepth_offset
                0x00000000080370e0       0xb8 lib/built-in.o
                0x00000000080370e0                fdt_supernode_atdepth_offset
 .text.fdt_node_depth
                0x0000000008037198       0x28 lib/built-in.o
                0x0000000008037198                fdt_node_depth
 .text.fdt_parent_offset
                0x00000000080371c0       0x30 lib/built-in.o
                0x00000000080371c0                fdt_parent_offset
 .text.fdt_node_offset_by_phandle
                0x00000000080371f0       0x78 lib/built-in.o
                0x00000000080371f0                fdt_node_offset_by_phandle
 .text.fdt_stringlist_contains
                0x0000000008037268       0x7c lib/built-in.o
                0x0000000008037268                fdt_stringlist_contains
 .text.fdt_node_check_compatible
                0x00000000080372e4       0x40 lib/built-in.o
                0x00000000080372e4                fdt_node_check_compatible
 .text.fdt_node_offset_by_compatible
                0x0000000008037324       0x74 lib/built-in.o
                0x0000000008037324                fdt_node_offset_by_compatible
 .text._fdt_blocks_misordered
                0x0000000008037398       0x68 lib/built-in.o
 .text._fdt_splice
                0x0000000008037400       0x78 lib/built-in.o
 .text._fdt_splice_mem_rsv
                0x0000000008037478       0x58 lib/built-in.o
 .text._fdt_splice_struct
                0x00000000080374d0       0x4c lib/built-in.o
 .text._fdt_packblocks
                0x000000000803751c       0xa8 lib/built-in.o
 .text._fdt_add_property
                0x00000000080375c4      0x120 lib/built-in.o
 .text._fdt_rw_check_header
                0x00000000080376e4       0x60 lib/built-in.o
 .text.fdt_add_mem_rsv
                0x0000000008037744       0x8c lib/built-in.o
                0x0000000008037744                fdt_add_mem_rsv
 .text.fdt_del_mem_rsv
                0x00000000080377d0       0x5c lib/built-in.o
                0x00000000080377d0                fdt_del_mem_rsv
 .text.fdt_setprop
                0x000000000803782c       0xcc lib/built-in.o
                0x000000000803782c                fdt_setprop
 .text.fdt_delprop
                0x00000000080378f8       0x64 lib/built-in.o
                0x00000000080378f8                fdt_delprop
 .text.fdt_add_subnode_namelen
                0x000000000803795c       0xf0 lib/built-in.o
                0x000000000803795c                fdt_add_subnode_namelen
 .text.fdt_add_subnode
                0x0000000008037a4c       0x30 lib/built-in.o
                0x0000000008037a4c                fdt_add_subnode
 .text.fdt_del_node
                0x0000000008037a7c       0x60 lib/built-in.o
                0x0000000008037a7c                fdt_del_node
 .text.fdt_open_into
                0x0000000008037adc      0x19c lib/built-in.o
                0x0000000008037adc                fdt_open_into
 .text.fdt_strerror
                0x0000000008037c78       0x58 lib/built-in.o
                0x0000000008037c78                fdt_strerror
 .text._fdt_node_end_offset
                0x0000000008037cd0       0x44 lib/built-in.o
                0x0000000008037cd0                _fdt_node_end_offset
 .text.fdt_address_cells
                0x0000000008037d14       0x4c lib/built-in.o
                0x0000000008037d14                fdt_address_cells
 .text.fdt_size_cells
                0x0000000008037d60       0x48 lib/built-in.o
                0x0000000008037d60                fdt_size_cells
 .text.fdtdec_get_int
                0x0000000008037da8       0x38 lib/built-in.o
                0x0000000008037da8                fdtdec_get_int
 .text.get_prop_check_min_len
                0x0000000008037de0       0x3c lib/built-in.o
 .text.fdtdec_get_addr_size
                0x0000000008037e1c       0x5c lib/built-in.o
                0x0000000008037e1c                fdtdec_get_addr_size
 .text.fdtdec_get_addr
                0x0000000008037e78        0x8 lib/built-in.o
                0x0000000008037e78                fdtdec_get_addr
 .text.fdtdec_get_is_enabled
                0x0000000008037e80       0x3c lib/built-in.o
                0x0000000008037e80                fdtdec_get_is_enabled
 .text.fdtdec_next_compatible
                0x0000000008037ebc       0x10 lib/built-in.o
                0x0000000008037ebc                fdtdec_next_compatible
 .text.fdtdec_add_aliases_for_id
                0x0000000008037ecc      0x288 lib/built-in.o
                0x0000000008037ecc                fdtdec_add_aliases_for_id
 .text.fdtdec_find_aliases_for_id
                0x0000000008038154       0x44 lib/built-in.o
                0x0000000008038154                fdtdec_find_aliases_for_id
 .text.fdtdec_prepare_fdt
                0x0000000008038198       0x44 lib/built-in.o
                0x0000000008038198                fdtdec_prepare_fdt
 .text.fdtdec_check_fdt
                0x00000000080381dc       0x10 lib/built-in.o
                0x00000000080381dc                fdtdec_check_fdt
 .text.fdtdec_lookup_phandle
                0x00000000080381ec       0x34 lib/built-in.o
                0x00000000080381ec                fdtdec_lookup_phandle
 .text.fdtdec_get_int_array
                0x0000000008038220       0x5c lib/built-in.o
                0x0000000008038220                fdtdec_get_int_array
 .text.fdtdec_get_config_int
                0x000000000803827c       0x40 lib/built-in.o
                0x000000000803827c                fdtdec_get_config_int
 .text.fdtdec_get_config_string
                0x00000000080382bc       0x3c lib/built-in.o
                0x00000000080382bc                fdtdec_get_config_string
 .text.gzalloc  0x00000000080382f8       0x10 lib/built-in.o
                0x00000000080382f8                gzalloc
 .text.gzfree   0x0000000008038308        0x8 lib/built-in.o
                0x0000000008038308                gzfree
 .text.zunzip   0x0000000008038310      0x128 lib/built-in.o
                0x0000000008038310                zunzip
 .text.gunzip   0x0000000008038438       0xb8 lib/built-in.o
                0x0000000008038438                gunzip
 .text.initcall_run_list
                0x00000000080384f0       0x64 lib/built-in.o
                0x00000000080384f0                initcall_run_list
 .text.lmb_add_region
                0x0000000008038554      0x1a4 lib/built-in.o
 .text.lmb_init
                0x00000000080386f8       0x28 lib/built-in.o
                0x00000000080386f8                lmb_init
 .text.lmb_add  0x0000000008038720        0x4 lib/built-in.o
                0x0000000008038720                lmb_add
 .text.lmb_free
                0x0000000008038724      0x104 lib/built-in.o
                0x0000000008038724                lmb_free
 .text.lmb_reserve
                0x0000000008038828        0x8 lib/built-in.o
                0x0000000008038828                lmb_reserve
 .text.__lmb_alloc_base
                0x0000000008038830      0x130 lib/built-in.o
                0x0000000008038830                __lmb_alloc_base
 .text.lmb_alloc_base
                0x0000000008038960       0x34 lib/built-in.o
                0x0000000008038960                lmb_alloc_base
 .text.lmb_alloc
                0x0000000008038994        0x8 lib/built-in.o
                0x0000000008038994                lmb_alloc
 .text.board_lmb_reserve
                0x000000000803899c        0x4 lib/built-in.o
                0x000000000803899c                board_lmb_reserve
 .text.byteReverse
                0x00000000080389a0       0x34 lib/built-in.o
 .text.MD5Transform
                0x00000000080389d4      0xa30 lib/built-in.o
 .text.MD5Update
                0x0000000008039404       0xe0 lib/built-in.o
 .text.MD5Final
                0x00000000080394e4       0xc8 lib/built-in.o
 .text.md5_wd   0x00000000080395ac       0x68 lib/built-in.o
                0x00000000080395ac                md5_wd
 .text.string_to_ip
                0x0000000008039614       0x60 lib/built-in.o
                0x0000000008039614                string_to_ip
 .text.qsort    0x0000000008039674       0xdc lib/built-in.o
                0x0000000008039674                qsort
 .text.sha1_process
                0x0000000008039750     0x14a8 lib/built-in.o
 .text.sha1_update.part.0
                0x000000000803abf8       0xbc lib/built-in.o
 .text.sha1_starts
                0x000000000803acb4       0x4c lib/built-in.o
                0x000000000803acb4                sha1_starts
 .text.sha1_update
                0x000000000803ad00        0xc lib/built-in.o
                0x000000000803ad00                sha1_update
 .text.sha1_finish
                0x000000000803ad0c      0x144 lib/built-in.o
                0x000000000803ad0c                sha1_finish
 .text.sha1_csum_wd
                0x000000000803ae50       0x40 lib/built-in.o
                0x000000000803ae50                sha1_csum_wd
 .text.sha256_process
                0x000000000803ae90     0x240c lib/built-in.o
 .text.sha256_update.part.0
                0x000000000803d29c       0xbc lib/built-in.o
 .text.sha256_starts
                0x000000000803d358       0x70 lib/built-in.o
                0x000000000803d358                sha256_starts
 .text.sha256_update
                0x000000000803d3c8        0xc lib/built-in.o
                0x000000000803d3c8                sha256_update
 .text.sha256_finish
                0x000000000803d3d4      0x1b0 lib/built-in.o
                0x000000000803d3d4                sha256_finish
 .text.sha256_csum_wd
                0x000000000803d584       0x40 lib/built-in.o
                0x000000000803d584                sha256_csum_wd
 .text.cmpkey   0x000000000803d5c4       0x14 lib/built-in.o
 .text._hdelete.isra.1
                0x000000000803d5d8       0x50 lib/built-in.o
 .text.drop_var_from_set.part.2
                0x000000000803d628       0x50 lib/built-in.o
 .text.match_string.isra.3
                0x000000000803d678       0x60 lib/built-in.o
 .text.hcreate_r
                0x000000000803d6d8       0xb0 lib/built-in.o
                0x000000000803d6d8                hcreate_r
 .text.hdestroy_r
                0x000000000803d788       0x78 lib/built-in.o
                0x000000000803d788                hdestroy_r
 .text.hsearch_r
                0x000000000803d800      0x4dc lib/built-in.o
                0x000000000803d800                hsearch_r
 .text.hdelete_r
                0x000000000803dcdc       0xd8 lib/built-in.o
                0x000000000803dcdc                hdelete_r
 .text.hexport_r
                0x000000000803ddb4      0x310 lib/built-in.o
                0x000000000803ddb4                hexport_r
 .text.himport_r
                0x000000000803e0c4      0x3c8 lib/built-in.o
                0x000000000803e0c4                himport_r
 .text.hwalk_r  0x000000000803e48c       0x58 lib/built-in.o
                0x000000000803e48c                hwalk_r
 .text.display_options
                0x000000000803e4e4       0x20 lib/built-in.o
                0x000000000803e4e4                display_options
 .text.print_size
                0x000000000803e504      0x130 lib/built-in.o
                0x000000000803e504                print_size
 .text.print_buffer
                0x000000000803e634      0x1b4 lib/built-in.o
                0x000000000803e634                print_buffer
 .text.crc32_no_comp
                0x000000000803e7e8       0xd8 lib/built-in.o
                0x000000000803e7e8                crc32_no_comp
 .text.crc32    0x000000000803e8c0       0x14 lib/built-in.o
                0x000000000803e8c0                crc32
 .text.crc32_wd
                0x000000000803e8d4        0x4 lib/built-in.o
                0x000000000803e8d4                crc32_wd
 .text.crc32_wd_buf
                0x000000000803e8d8       0x40 lib/built-in.o
                0x000000000803e8d8                crc32_wd_buf
 .text.__div64_32
                0x000000000803e918       0xd0 lib/built-in.o
                0x000000000803e918                __div64_32
 .text.hang     0x000000000803e9e8       0x1c lib/built-in.o
                0x000000000803e9e8                hang
 .text.kzalloc  0x000000000803ea04       0x2c lib/built-in.o
                0x000000000803ea04                kzalloc
 .text.skip_spaces
                0x000000000803ea30       0x28 lib/built-in.o
                0x000000000803ea30                skip_spaces
 .text.strim    0x000000000803ea58       0x60 lib/built-in.o
                0x000000000803ea58                strim
 .text.strcpy   0x000000000803eab8       0x18 lib/built-in.o
                0x000000000803eab8                strcpy
 .text.strncpy  0x000000000803ead0       0x24 lib/built-in.o
                0x000000000803ead0                strncpy
 .text.strcat   0x000000000803eaf4       0x30 lib/built-in.o
                0x000000000803eaf4                strcat
 .text.strncat  0x000000000803eb24       0x54 lib/built-in.o
                0x000000000803eb24                strncat
 .text.strcmp   0x000000000803eb78       0x28 lib/built-in.o
                0x000000000803eb78                strcmp
 .text.strncmp  0x000000000803eba0       0x3c lib/built-in.o
                0x000000000803eba0                strncmp
 .text.strchr   0x000000000803ebdc       0x2c lib/built-in.o
                0x000000000803ebdc                strchr
 .text.strlen   0x000000000803ec08       0x20 lib/built-in.o
                0x000000000803ec08                strlen
 .text.strrchr  0x000000000803ec28       0x3c lib/built-in.o
                0x000000000803ec28                strrchr
 .text.strnlen  0x000000000803ec64       0x2c lib/built-in.o
                0x000000000803ec64                strnlen
 .text.strdup   0x000000000803ec90       0x40 lib/built-in.o
                0x000000000803ec90                strdup
 .text.strpbrk  0x000000000803ecd0       0x3c lib/built-in.o
                0x000000000803ecd0                strpbrk
 .text.strsep   0x000000000803ed0c       0x38 lib/built-in.o
                0x000000000803ed0c                strsep
 .text.memset   0x000000000803ed44       0x5c lib/built-in.o
                0x000000000803ed44                memset
 .text.memcpy   0x000000000803eda0       0x6c lib/built-in.o
                0x000000000803eda0                memcpy
 .text.memmove  0x000000000803ee0c       0x48 lib/built-in.o
                0x000000000803ee0c                memmove
 .text.memcmp   0x000000000803ee54       0x30 lib/built-in.o
                0x000000000803ee54                memcmp
 .text.strstr   0x000000000803ee84       0x6c lib/built-in.o
                0x000000000803ee84                strstr
 .text.memchr   0x000000000803eef0       0x30 lib/built-in.o
                0x000000000803eef0                memchr
 .text.udelay   0x000000000803ef20       0x30 lib/built-in.o
                0x000000000803ef20                udelay
 .text.mdelay   0x000000000803ef50       0x24 lib/built-in.o
                0x000000000803ef50                mdelay
 .text.uuid_bin_to_str
                0x000000000803ef74       0xa8 lib/built-in.o
                0x000000000803ef74                uuid_bin_to_str
 .text.put_dec_trunc
                0x000000000803f01c       0xd4 lib/built-in.o
 .text.string   0x000000000803f0f0       0xbc lib/built-in.o
 .text.put_dec  0x000000000803f1ac      0x13c lib/built-in.o
 .text.number   0x000000000803f2e8      0x2b8 lib/built-in.o
 .text.vsnprintf_internal
                0x000000000803f5a0      0x698 lib/built-in.o
 .text.simple_strtoul
                0x000000000803fc38       0xb8 lib/built-in.o
                0x000000000803fc38                simple_strtoul
 .text.strict_strtoul
                0x000000000803fcf0       0x78 lib/built-in.o
                0x000000000803fcf0                strict_strtoul
 .text.simple_strtol
                0x000000000803fd68       0x28 lib/built-in.o
                0x000000000803fd68                simple_strtol
 .text.ustrtoul
                0x000000000803fd90       0x70 lib/built-in.o
                0x000000000803fd90                ustrtoul
 .text.simple_strtoull
                0x000000000803fe00       0xdc lib/built-in.o
                0x000000000803fe00                simple_strtoull
 .text.ustrtoull
                0x000000000803fedc       0x88 lib/built-in.o
                0x000000000803fedc                ustrtoull
 .text.vscnprintf
                0x000000000803ff64       0x24 lib/built-in.o
                0x000000000803ff64                vscnprintf
 .text.snprintf
                0x000000000803ff88       0x28 lib/built-in.o
                0x000000000803ff88                snprintf
 .text.vsprintf
                0x000000000803ffb0       0x14 lib/built-in.o
                0x000000000803ffb0                vsprintf
 .text.sprintf  0x000000000803ffc4       0x28 lib/built-in.o
                0x000000000803ffc4                sprintf
 .text.panic    0x000000000803ffec       0x44 lib/built-in.o
                0x000000000803ffec                panic
 .text.simple_itoa
                0x0000000008040030       0x54 lib/built-in.o
                0x0000000008040030                simple_itoa
 .text.rand_r   0x0000000008040084       0x1c lib/built-in.o
                0x0000000008040084                rand_r
 .text.compute_ip_checksum
                0x00000000080400a0       0x68 net/built-in.o
                0x00000000080400a0                compute_ip_checksum
 .text.ip_checksum_ok
                0x0000000008040108       0x1c net/built-in.o
                0x0000000008040108                ip_checksum_ok
 .text.ArpInit  0x0000000008040124       0x50 net/built-in.o
                0x0000000008040124                ArpInit
 .text.arp_raw_request
                0x0000000008040174       0xc0 net/built-in.o
                0x0000000008040174                arp_raw_request
 .text.ArpRequest
                0x0000000008040234       0x84 net/built-in.o
                0x0000000008040234                ArpRequest
 .text.ArpTimeoutCheck
                0x00000000080402b8       0x80 net/built-in.o
                0x00000000080402b8                ArpTimeoutCheck
 .text.ArpReceive
                0x0000000008040338      0x1fc net/built-in.o
                0x0000000008040338                ArpReceive
 .text.BootpHandler
                0x0000000008040534      0x37c net/built-in.o
 .text.BootpReset
                0x00000000080408b0       0x44 net/built-in.o
                0x00000000080408b0                BootpReset
 .text.BootpRequest
                0x00000000080408f4      0x234 net/built-in.o
                0x00000000080408f4                BootpRequest
 .text.BootpTimeout
                0x0000000008040b28       0x68 net/built-in.o
 .text.__def_eth_init
                0x0000000008040b90        0x8 net/built-in.o
                0x0000000008040b90                cpu_eth_init
 .text.eth_current_changed
                0x0000000008040b98       0x60 net/built-in.o
 .text.eth_parse_enetaddr
                0x0000000008040bf8       0x54 net/built-in.o
                0x0000000008040bf8                eth_parse_enetaddr
 .text.eth_getenv_enetaddr
                0x0000000008040c4c       0x5c net/built-in.o
                0x0000000008040c4c                eth_getenv_enetaddr
 .text.eth_setenv_enetaddr
                0x0000000008040ca8       0x34 net/built-in.o
                0x0000000008040ca8                eth_setenv_enetaddr
 .text.eth_getenv_enetaddr_by_index
                0x0000000008040cdc       0x50 net/built-in.o
                0x0000000008040cdc                eth_getenv_enetaddr_by_index
 .text.eth_get_dev_index
                0x0000000008040d2c       0x1c net/built-in.o
                0x0000000008040d2c                eth_get_dev_index
 .text.eth_write_hwaddr
                0x0000000008040d48      0x230 net/built-in.o
                0x0000000008040d48                eth_write_hwaddr
 .text.eth_register
                0x0000000008040f78       0x7c net/built-in.o
                0x0000000008040f78                eth_register
 .text.eth_initialize
                0x0000000008040ff4      0x1b4 net/built-in.o
                0x0000000008040ff4                eth_initialize
 .text.eth_halt
                0x00000000080411a8       0x30 net/built-in.o
                0x00000000080411a8                eth_halt
 .text.eth_send
                0x00000000080411d8       0x38 net/built-in.o
                0x00000000080411d8                eth_send
 .text.eth_rx   0x0000000008041210       0x24 net/built-in.o
                0x0000000008041210                eth_rx
 .text.eth_try_another
                0x0000000008041234       0x84 net/built-in.o
                0x0000000008041234                eth_try_another
 .text.eth_init
                0x00000000080412b8       0xd0 net/built-in.o
                0x00000000080412b8                eth_init
 .text.eth_set_current
                0x0000000008041388       0xa4 net/built-in.o
                0x0000000008041388                eth_set_current
 .text.eth_get_name
                0x000000000804142c       0x20 net/built-in.o
                0x000000000804142c                eth_get_name
 .text.startAgainTimeout
                0x000000000804144c       0x14 net/built-in.o
 .text.dummy_handler
                0x0000000008041460        0x4 net/built-in.o
 .text.net_clear_handlers
                0x0000000008041464       0x34 net/built-in.o
 .text.net_auto_load
                0x0000000008041498       0x38 net/built-in.o
                0x0000000008041498                net_auto_load
 .text.NetStartAgain
                0x00000000080414d0      0x150 net/built-in.o
                0x00000000080414d0                NetStartAgain
 .text.net_set_udp_handler
                0x0000000008041620       0x20 net/built-in.o
                0x0000000008041620                net_set_udp_handler
 .text.net_get_arp_handler
                0x0000000008041640       0x10 net/built-in.o
                0x0000000008041640                net_get_arp_handler
 .text.NetSetTimeout
                0x0000000008041650       0x5c net/built-in.o
                0x0000000008041650                NetSetTimeout
 .text.NetReceive
                0x00000000080416ac      0x270 net/built-in.o
                0x00000000080416ac                NetReceive
 .text.NetEthHdrSize
                0x000000000804191c       0x38 net/built-in.o
                0x000000000804191c                NetEthHdrSize
 .text.NetSetEther
                0x0000000008041954       0x94 net/built-in.o
                0x0000000008041954                NetSetEther
 .text.net_update_ether
                0x00000000080419e8       0x78 net/built-in.o
                0x00000000080419e8                net_update_ether
 .text.net_set_ip_header
                0x0000000008041a60       0x88 net/built-in.o
                0x0000000008041a60                net_set_ip_header
 .text.net_set_udp_header
                0x0000000008041ae8       0x84 net/built-in.o
                0x0000000008041ae8                net_set_udp_header
 .text.NetSendUDPPacket
                0x0000000008041b6c      0x10c net/built-in.o
                0x0000000008041b6c                NetSendUDPPacket
 .text.copy_filename
                0x0000000008041c78       0x44 net/built-in.o
                0x0000000008041c78                copy_filename
 .text.on_bootfile
                0x0000000008041cbc       0x2c net/built-in.o
 .text.ip_to_string
                0x0000000008041ce8       0x38 net/built-in.o
                0x0000000008041ce8                ip_to_string
 .text.string_to_VLAN
                0x0000000008041d20       0x44 net/built-in.o
                0x0000000008041d20                string_to_VLAN
 .text.getenv_VLAN
                0x0000000008041d64       0x10 net/built-in.o
                0x0000000008041d64                getenv_VLAN
 .text.NetInitLoop
                0x0000000008041d74       0xf0 net/built-in.o
 .text.net_init
                0x0000000008041e64       0x70 net/built-in.o
                0x0000000008041e64                net_init
 .text.NetLoop  0x0000000008041ed4      0x31c net/built-in.o
                0x0000000008041ed4                NetLoop
 .text.ping_timeout
                0x00000000080421f0       0x1c net/built-in.o
 .text.ping_start
                0x000000000804220c      0x118 net/built-in.o
                0x000000000804220c                ping_start
 .text.ping_receive
                0x0000000008042324       0xdc net/built-in.o
                0x0000000008042324                ping_receive
 .text.TftpSend
                0x0000000008042400      0x1c8 net/built-in.o
 .text.TftpHandler
                0x00000000080425c8      0x378 net/built-in.o
 .text.TftpTimeout
                0x0000000008042940       0x88 net/built-in.o
 .text.TftpStart
                0x00000000080429c8      0x33c net/built-in.o
                0x00000000080429c8                TftpStart
 .text.raise    0x0000000008042d04       0x1c arch/arm/lib/eabi_compat.o
                0x0000000008042d04                raise
 .text          0x0000000008042d20      0x278 /usr/lib/gcc/arm-linux-gnueabihf/4.9/libgcc.a(_udivsi3.o)
                0x0000000008042d20                __udivsi3
                0x0000000008042d20                __aeabi_uidiv
                0x0000000008042f7c                __aeabi_uidivmod
 .text          0x0000000008042f98      0x2b0 /usr/lib/gcc/arm-linux-gnueabihf/4.9/libgcc.a(_divsi3.o)
                0x0000000008042f98                __aeabi_idiv
                0x0000000008042f98                __divsi3
                0x000000000804322c                __aeabi_idivmod
 .text          0x0000000008043248       0x18 /usr/lib/gcc/arm-linux-gnueabihf/4.9/libgcc.a(_lshrdi3.o)
                0x0000000008043248                __aeabi_llsr
                0x0000000008043248                __lshrdi3
 .text          0x0000000008043260       0x18 /usr/lib/gcc/arm-linux-gnueabihf/4.9/libgcc.a(_ashldi3.o)
                0x0000000008043260                __ashldi3
                0x0000000008043260                __aeabi_llsl
 .text          0x0000000008043278        0xc /usr/lib/gcc/arm-linux-gnueabihf/4.9/libgcc.a(_dvmd_lnx.o)
                0x0000000008043278                __aeabi_ldiv0
                0x0000000008043278                __aeabi_idiv0

.glue_7         0x0000000008043284        0x0
 .glue_7        0x0000000008043284        0x0 linker stubs

.glue_7t        0x0000000008043284        0x0
 .glue_7t       0x0000000008043284        0x0 linker stubs

.vfp11_veneer   0x0000000008043284        0x0
 .vfp11_veneer  0x0000000008043284        0x0 linker stubs

.v4_bx          0x0000000008043284        0x0
 .v4_bx         0x0000000008043284        0x0 linker stubs

.iplt           0x0000000008043284        0x0
 .iplt          0x0000000008043284        0x0 arch/arm/cpu/armv7/start.o
                0x0000000008043284                . = ALIGN (0x4)

.rodata         0x0000000008043284    0x11f18
 *(SORT(.rodata*))
 .rodata        0x0000000008043284       0x30 arch/arm/cpu/armv7/built-in.o
 .rodata        0x00000000080432b4       0x80 arch/arm/lib/built-in.o
 .rodata        0x0000000008043334       0x1c drivers/built-in.o
 .rodata.CSWTCH.26
                0x0000000008043350       0x14 common/built-in.o
 .rodata.CSWTCH.41
                0x0000000008043364       0x1c drivers/built-in.o
 .rodata.CSWTCH.42
                0x0000000008043380       0x1c drivers/built-in.o
 .rodata.CSWTCH.96
                0x000000000804339c       0x4c common/built-in.o
 .rodata.arrange_name_list
                0x00000000080433e8       0x30 drivers/built-in.o
 .rodata.atm7059_functions
                0x0000000008043418      0x240 arch/arm/cpu/armv7/built-in.o
                0x0000000008043418                atm7059_functions
 .rodata.atm7059_groups
                0x0000000008043658     0x11e0 arch/arm/cpu/armv7/built-in.o
                0x0000000008043658                atm7059_groups
 .rodata.atm7059_pads
                0x0000000008044838      0x508 arch/arm/cpu/armv7/built-in.o
                0x0000000008044838                atm7059_pads
 .rodata.block_drvr
                0x0000000008044d40       0x24 disk/built-in.o
 .rodata.boot_os
                0x0000000008044d64       0x60 common/built-in.o
 .rodata.clko_25m_groups
                0x0000000008044dc4        0x4 arch/arm/cpu/armv7/built-in.o
 .rodata.cmd_dispatch_info
                0x0000000008044dc8       0x40 drivers/usb/gadget/built-in.o
 .rodata.compat_names
                0x0000000008044e08      0x118 lib/built-in.o
 .rodata.crc_table
                0x0000000008044f20      0x400 lib/built-in.o
 .rodata.cvbs_display_modes
                0x0000000008045320       0x80 drivers/built-in.o
 .rodata.date_fmts
                0x00000000080453a0       0x60 drivers/built-in.o
 .rodata.declk_div_table
                0x0000000008045400       0x64 drivers/built-in.o
 .rodata.dma_base
                0x0000000008045464       0x30 drivers/mmc/built-in.o
 .rodata.dsi_groups
                0x0000000008045494       0x1c arch/arm/cpu/armv7/built-in.o
 .rodata.dwc3_ep_init
                0x00000000080454b0       0x48 drivers/usb/gadget/built-in.o
 .rodata.dwc3_gadget_ep0_ops
                0x00000000080454f8       0x24 drivers/usb/gadget/built-in.o
 .rodata.dwc3_gadget_ep_ops
                0x000000000804551c       0x24 drivers/usb/gadget/built-in.o
 .rodata.dwc3_gadget_ops
                0x0000000008045540       0x1c drivers/usb/gadget/built-in.o
 .rodata.env_flags_varaccess_mask
                0x000000000804555c       0x10 common/built-in.o
 .rodata.eth_rmii_groups
                0x000000000804556c       0x24 arch/arm/cpu/armv7/built-in.o
 .rodata.eth_smii_groups
                0x0000000008045590       0x14 arch/arm/cpu/armv7/built-in.o
 .rodata.ext_csd_bits.7898
                0x00000000080455a4       0x14 drivers/mmc/built-in.o
 .rodata.ext_to_hostcaps.7899
                0x00000000080455b8       0x1c drivers/mmc/built-in.o
 .rodata.fbase  0x00000000080455d4       0x10 drivers/mmc/built-in.o
 .rodata.fdt_errtable
                0x00000000080455e4       0x34 lib/built-in.o
 .rodata.hdmi_display_modes
                0x0000000008045618      0x200 drivers/built-in.o
 .rodata.hdmi_mode
                0x0000000008045818       0x38 drivers/built-in.o
 .rodata.i2c0_groups
                0x0000000008045850        0xc arch/arm/cpu/armv7/built-in.o
 .rodata.i2c1_groups
                0x000000000804585c        0x8 arch/arm/cpu/armv7/built-in.o
 .rodata.i2c2_groups
                0x0000000008045864        0x4 arch/arm/cpu/armv7/built-in.o
 .rodata.i2c3_groups
                0x0000000008045868        0xc arch/arm/cpu/armv7/built-in.o
 .rodata.i2s0_groups
                0x0000000008045874        0xc arch/arm/cpu/armv7/built-in.o
 .rodata.i2s1_groups
                0x0000000008045880       0x18 arch/arm/cpu/armv7/built-in.o
 .rodata.jtag_groups
                0x0000000008045898       0x24 arch/arm/cpu/armv7/built-in.o
 .rodata.ks_groups
                0x00000000080458bc       0x1c arch/arm/cpu/armv7/built-in.o
 .rodata.lcd0_groups
                0x00000000080458d8       0x20 arch/arm/cpu/armv7/built-in.o
 .rodata.lvds_groups
                0x00000000080458f8        0xc arch/arm/cpu/armv7/built-in.o
 .rodata.mipi_csi_groups
                0x0000000008045904        0x8 arch/arm/cpu/armv7/built-in.o
 .rodata.mmc_name
                0x000000000804590c        0xc drivers/mmc/built-in.o
 .rodata.multipliers
                0x0000000008045918       0x40 drivers/mmc/built-in.o
 .rodata.nand_groups
                0x0000000008045958       0x14 arch/arm/cpu/armv7/built-in.o
 .rodata.nor_groups
                0x000000000804596c       0x64 arch/arm/cpu/armv7/built-in.o
 .rodata.op_adv
                0x00000000080459d0      0x100 common/built-in.o
                0x00000000080459d0                op_adv
 .rodata.p0_groups
                0x0000000008045ad0        0x8 arch/arm/cpu/armv7/built-in.o
 .rodata.pcm0_groups
                0x0000000008045ad8       0x10 arch/arm/cpu/armv7/built-in.o
 .rodata.pcm1_groups
                0x0000000008045ae8       0x20 arch/arm/cpu/armv7/built-in.o
 .rodata.pwm0_groups
                0x0000000008045b08       0x10 arch/arm/cpu/armv7/built-in.o
 .rodata.pwm1_groups
                0x0000000008045b18       0x10 arch/arm/cpu/armv7/built-in.o
 .rodata.pwm2_groups
                0x0000000008045b28       0x10 arch/arm/cpu/armv7/built-in.o
 .rodata.pwm3_groups
                0x0000000008045b38        0xc arch/arm/cpu/armv7/built-in.o
 .rodata.pwm4_groups
                0x0000000008045b44       0x18 arch/arm/cpu/armv7/built-in.o
 .rodata.pwm5_groups
                0x0000000008045b5c       0x10 arch/arm/cpu/armv7/built-in.o
 .rodata.sd0_groups
                0x0000000008045b6c       0x30 arch/arm/cpu/armv7/built-in.o
 .rodata.sd1_groups
                0x0000000008045b9c       0x24 arch/arm/cpu/armv7/built-in.o
 .rodata.sd2_groups
                0x0000000008045bc0        0x4 arch/arm/cpu/armv7/built-in.o
 .rodata.sens0_groups
                0x0000000008045bc4       0x10 arch/arm/cpu/armv7/built-in.o
 .rodata.sens1_groups
                0x0000000008045bd4       0x34 arch/arm/cpu/armv7/built-in.o
 .rodata.sirq0_groups
                0x0000000008045c08        0x4 arch/arm/cpu/armv7/built-in.o
 .rodata.sirq1_groups
                0x0000000008045c0c        0x4 arch/arm/cpu/armv7/built-in.o
 .rodata.sirq2_groups
                0x0000000008045c10        0x4 arch/arm/cpu/armv7/built-in.o
 .rodata.spdif_groups
                0x0000000008045c14        0x4 arch/arm/cpu/armv7/built-in.o
 .rodata.spi0_groups
                0x0000000008045c18       0x18 arch/arm/cpu/armv7/built-in.o
 .rodata.spi1_groups
                0x0000000008045c30        0xc arch/arm/cpu/armv7/built-in.o
 .rodata.spi2_groups
                0x0000000008045c3c       0x14 arch/arm/cpu/armv7/built-in.o
 .rodata.spi3_groups
                0x0000000008045c50       0x10 arch/arm/cpu/armv7/built-in.o
 .rodata.table_bat_percentage
                0x0000000008045c60       0x58 drivers/power/built-in.o
 .rodata.ts_groups
                0x0000000008045cb8        0x8 arch/arm/cpu/armv7/built-in.o
 .rodata.uart0_groups
                0x0000000008045cc0       0x10 arch/arm/cpu/armv7/built-in.o
 .rodata.uart1_groups
                0x0000000008045cd0        0x8 arch/arm/cpu/armv7/built-in.o
 .rodata.uart2_groups
                0x0000000008045cd8       0x44 arch/arm/cpu/armv7/built-in.o
 .rodata.uart3_groups
                0x0000000008045d1c        0xc arch/arm/cpu/armv7/built-in.o
 .rodata.uart4_groups
                0x0000000008045d28       0x10 arch/arm/cpu/armv7/built-in.o
 .rodata.uart5_groups
                0x0000000008045d38       0x20 arch/arm/cpu/armv7/built-in.o
 .rodata.uart6_groups
                0x0000000008045d58       0x10 arch/arm/cpu/armv7/built-in.o
 .rodata.uimage_arch
                0x0000000008045d68      0x12c common/built-in.o
 .rodata.uimage_comp
                0x0000000008045e94       0x48 common/built-in.o
 .rodata.uimage_os
                0x0000000008045edc       0x6c common/built-in.o
 .rodata.uimage_type
                0x0000000008045f48      0x114 common/built-in.o
 .rodata.usb30_groups
                0x000000000804605c        0x4 arch/arm/cpu/armv7/built-in.o
 .rodata.video_font_draw_table15
                0x0000000008046060       0x10 drivers/built-in.o
 .rodata.video_font_draw_table16
                0x0000000008046070       0x10 drivers/built-in.o
 .rodata.video_font_draw_table24
                0x0000000008046080       0xc0 drivers/built-in.o
 .rodata.video_font_draw_table32
                0x0000000008046140      0x100 drivers/built-in.o
 .rodata.video_font_draw_table8
                0x0000000008046240       0x40 drivers/built-in.o
 .rodata.widths.7900
                0x0000000008046280       0x14 drivers/mmc/built-in.o
 .rodata.dbase.7721
                0x0000000008046294       0x40 lib/built-in.o
 .rodata.dext.7722
                0x00000000080462d4       0x40 lib/built-in.o
 .rodata.distfix
                0x0000000008046314       0x80 lib/built-in.o
 .rodata.lbase.7719
                0x0000000008046394       0x3e lib/built-in.o
 .rodata.lenfix
                0x00000000080463d2      0x800 lib/built-in.o
 .rodata.lext.7720
                0x0000000008046bd2       0x3e lib/built-in.o
 .rodata.order.7815
                0x0000000008046c10       0x26 lib/built-in.o
 .rodata.pmu_adc_reg.7766
                0x0000000008046c36       0x18 drivers/built-in.o
 .rodata.sc_atc2603c_pstore_fmt_tbl
                0x0000000008046c4e      0x118 arch/arm/cpu/armv7/built-in.o
 .rodata        0x0000000008046d66        0xf common/built-in.o
 .rodata        0x0000000008046d75       0x3a drivers/usb/host/built-in.o
 .rodata        0x0000000008046daf       0x20 lib/built-in.o
 .rodata        0x0000000008046dcf        0xe net/built-in.o
 .rodata.CSWTCH.23
                0x0000000008046ddd       0x16 common/built-in.o
 .rodata.__FUNCTION__.7613
                0x0000000008046df3       0x17 common/built-in.o
 .rodata.__FUNCTION__.7713
                0x0000000008046e0a       0x11 drivers/mmc/built-in.o
 .rodata.__FUNCTION__.8456
                0x0000000008046e1b       0x11 drivers/usb/host/built-in.o
 .rodata.__FUNCTION__.8461
                0x0000000008046e2c       0x11 drivers/usb/host/built-in.o
 .rodata.__FUNCTION__.8470
                0x0000000008046e3d        0xf drivers/usb/host/built-in.o
 .rodata.__FUNCTION__.8502
                0x0000000008046e4c        0xc drivers/usb/host/built-in.o
 .rodata.__FUNCTION__.8508
                0x0000000008046e58       0x19 drivers/usb/host/built-in.o
 .rodata.__FUNCTION__.8516
                0x0000000008046e71       0x13 drivers/usb/host/built-in.o
 .rodata.__FUNCTION__.8517
                0x0000000008046e84       0x13 drivers/usb/host/built-in.o
 .rodata.__FUNCTION__.8524
                0x0000000008046e97       0x10 drivers/usb/host/built-in.o
 .rodata.__FUNCTION__.8534
                0x0000000008046ea7       0x19 drivers/usb/host/built-in.o
 .rodata.__FUNCTION__.8541
                0x0000000008046ec0       0x14 drivers/mmc/built-in.o
 .rodata.__FUNCTION__.8549
                0x0000000008046ed4       0x14 drivers/usb/host/built-in.o
 .rodata.__FUNCTION__.8551
                0x0000000008046ee8       0x14 drivers/usb/host/built-in.o
 .rodata.__FUNCTION__.8562
                0x0000000008046efc        0x9 drivers/usb/host/built-in.o
 .rodata.__FUNCTION__.8563
                0x0000000008046f05       0x11 drivers/usb/host/built-in.o
 .rodata.__FUNCTION__.8567
                0x0000000008046f16       0x1b drivers/usb/host/built-in.o
 .rodata.__FUNCTION__.8572
                0x0000000008046f31       0x17 drivers/usb/host/built-in.o
 .rodata.__FUNCTION__.8606
                0x0000000008046f48       0x20 drivers/usb/host/built-in.o
 .rodata.__FUNCTION__.8616
                0x0000000008046f68        0xd drivers/usb/host/built-in.o
 .rodata.__FUNCTION__.8640
                0x0000000008046f75        0xd drivers/usb/host/built-in.o
 .rodata.__FUNCTION__.8731
                0x0000000008046f82       0x1a drivers/usb/gadget/built-in.o
 .rodata.__FUNCTION__.8740
                0x0000000008046f9c       0x16 drivers/usb/gadget/built-in.o
 .rodata.__FUNCTION__.8864
                0x0000000008046fb2       0x11 drivers/mmc/built-in.o
 .rodata.__FUNCTION__.8872
                0x0000000008046fc3        0xc drivers/mmc/built-in.o
 .rodata.__FUNCTION__.8911
                0x0000000008046fcf       0x16 drivers/usb/gadget/built-in.o
 .rodata.__FUNCTION__.8927
                0x0000000008046fe5       0x17 drivers/usb/gadget/built-in.o
 .rodata.__FUNCTION__.8990
                0x0000000008046ffc       0x1c drivers/usb/gadget/built-in.o
 .rodata.__FUNCTION__.9010
                0x0000000008047018       0x17 drivers/usb/gadget/built-in.o
 .rodata.__FUNCTION__.9201
                0x000000000804702f       0x17 drivers/usb/gadget/built-in.o
 .rodata.__FUNCTION__.9247
                0x0000000008047046       0x1a drivers/usb/gadget/built-in.o
 .rodata.__FUNCTION__.9265
                0x0000000008047060       0x18 drivers/usb/gadget/built-in.o
 .rodata.__FUNCTION__.9711
                0x0000000008047078       0x11 drivers/usb/gadget/built-in.o
 .rodata.__func__.7389
                0x0000000008047089       0x19 board/actions/owl/built-in.o
 .rodata.__func__.7425
                0x00000000080470a2       0x13 common/built-in.o
 .rodata.__func__.7495
                0x00000000080470b5       0x18 common/built-in.o
 .rodata.__func__.7513
                0x00000000080470cd        0xe common/built-in.o
 .rodata.__func__.7532
                0x00000000080470db        0xf disk/built-in.o
 .rodata.__func__.7544
                0x00000000080470ea       0x17 disk/built-in.o
 .rodata.__func__.7583
                0x0000000008047101       0x16 arch/arm/cpu/armv7/built-in.o
 .rodata.__func__.7589
                0x0000000008047117       0x10 common/built-in.o
 .rodata.__func__.7598
                0x0000000008047127       0x13 common/built-in.o
 .rodata.__func__.7611
                0x000000000804713a        0xd common/built-in.o
 .rodata.__func__.7616
                0x0000000008047147        0xf fs/built-in.o
 .rodata.__func__.7632
                0x0000000008047156       0x1d disk/built-in.o
 .rodata.__func__.7649
                0x0000000008047173        0xd disk/built-in.o
 .rodata.__func__.7657
                0x0000000008047180       0x17 disk/built-in.o
 .rodata.__func__.7662
                0x0000000008047197        0xd disk/built-in.o
 .rodata.__func__.7777
                0x00000000080471a4       0x10 common/built-in.o
 .rodata.__func__.7793
                0x00000000080471b4        0xb common/built-in.o
 .rodata.__func__.7800
                0x00000000080471bf        0xb common/built-in.o
 .rodata.__func__.8095
                0x00000000080471ca       0x19 common/built-in.o
 .rodata.__func__.8112
                0x00000000080471e3        0xe common/built-in.o
 .rodata.__func__.8131
                0x00000000080471f1       0x11 arch/arm/cpu/armv7/built-in.o
 .rodata.__func__.8141
                0x0000000008047202        0xf arch/arm/cpu/armv7/built-in.o
 .rodata.__func__.8149
                0x0000000008047211        0x9 arch/arm/cpu/armv7/built-in.o
 .rodata.__func__.8149
                0x000000000804721a        0xe common/built-in.o
 .rodata.__func__.8285
                0x0000000008047228        0xa drivers/usb/gadget/built-in.o
 .rodata.__func__.8334
                0x0000000008047232        0x9 drivers/usb/gadget/built-in.o
 .rodata.__func__.8347
                0x000000000804723b        0x9 drivers/usb/gadget/built-in.o
 .rodata.__func__.8366
                0x0000000008047244       0x13 drivers/usb/gadget/built-in.o
 .rodata.__func__.8438
                0x0000000008047257       0x14 common/built-in.o
 .rodata.__func__.8563
                0x000000000804726b        0xf arch/arm/cpu/armv7/built-in.o
 .rodata.__func__.8612
                0x000000000804727a        0x9 arch/arm/cpu/armv7/built-in.o
 .rodata.__func__.9264
                0x0000000008047283       0x14 drivers/built-in.o
 .rodata.__func__.9728
                0x0000000008047297       0x14 drivers/built-in.o
 .rodata.__func__.9767
                0x00000000080472ab        0xa drivers/built-in.o
 .rodata.__func__.9839
                0x00000000080472b5        0xf drivers/usb/gadget/built-in.o
 .rodata._ctype
                0x00000000080472c4      0x100 lib/built-in.o
                0x00000000080472c4                _ctype
 .rodata.default_environment
                0x00000000080473c4      0x6b6 common/built-in.o
                0x00000000080473c4                default_environment
 .rodata.delims.7432
                0x0000000008047a7a        0x3 common/built-in.o
 .rodata.digits.7429
                0x0000000008047a7d       0x10 lib/built-in.o
 .rodata.dirletter.8707
                0x0000000008047a8d        0x4 drivers/usb/gadget/built-in.o
 .rodata.env_flags_varaccess_rep
                0x0000000008047a91        0x5 common/built-in.o
 .rodata.env_flags_vartype_rep
                0x0000000008047a96        0x7 common/built-in.o
 .rodata.erase_seq
                0x0000000008047a9d        0x4 common/built-in.o
 .rodata.fastboot_name
                0x0000000008047aa1       0x11 drivers/usb/gadget/built-in.o
 .rodata.fsg_string_interface
                0x0000000008047ab2        0xd drivers/usb/gadget/built-in.o
 .rodata.hex_asc
                0x0000000008047abf       0x11 lib/built-in.o
 .rodata.manufacturer
                0x0000000008047ad0        0xd drivers/usb/gadget/built-in.o
 .rodata.names.7471
                0x0000000008047add        0x6 lib/built-in.o
 .rodata.product
                0x0000000008047ae3       0x14 drivers/usb/gadget/built-in.o
 .rodata.sha1_padding
                0x0000000008047af7       0x40 lib/built-in.o
 .rodata.str1.1
                0x0000000008047b37     0x12bd arch/arm/cpu/armv7/built-in.o
                                       0x12fd (size before relaxing)
 .rodata.str1.1
                0x0000000008048df4      0x3e3 arch/arm/lib/built-in.o
                                        0x40a (size before relaxing)
 .rodata.str1.1
                0x00000000080491d7      0x2b7 board/actions/owl/built-in.o
                                        0x2f8 (size before relaxing)
 .rodata.str1.1
                0x000000000804948e     0x6522 common/built-in.o
                                       0x6c67 (size before relaxing)
 .rodata.str1.1
                0x000000000804f9b0      0x82e disk/built-in.o
                                        0x86b (size before relaxing)
 .rodata.str1.1
                0x00000000080501de     0x1726 drivers/built-in.o
                                       0x1974 (size before relaxing)
 .rodata.str1.1
                0x0000000008051904       0x2f drivers/gpio/built-in.o
 .rodata.str1.1
                0x0000000008051933       0x25 drivers/i2c/built-in.o
                                         0x29 (size before relaxing)
 .rodata.str1.1
                0x0000000008051958      0x902 drivers/mmc/built-in.o
                                        0x95e (size before relaxing)
 .rodata.str1.1
                0x000000000805225a      0x366 drivers/net/built-in.o
 .rodata.str1.1
                0x00000000080525c0      0x20d drivers/power/built-in.o
 .rodata.str1.1
                0x00000000080527cd       0x89 drivers/serial/built-in.o
                                         0x92 (size before relaxing)
 .rodata.str1.1
                0x0000000008052856       0x28 drivers/spi/built-in.o
 .rodata.str1.1
                0x000000000805287e      0xa03 drivers/usb/gadget/built-in.o
                                        0xa8b (size before relaxing)
 .rodata.str1.1
                0x0000000008053281      0x557 drivers/usb/host/built-in.o
                                        0x5e5 (size before relaxing)
 .rodata.str1.1
                0x00000000080537d8      0x738 fs/built-in.o
                                        0x7d4 (size before relaxing)
 .rodata.str1.1
                0x0000000008053f10      0xbb4 lib/built-in.o
                                        0xc48 (size before relaxing)
 .rodata.str1.1
                0x0000000008054ac4      0x657 net/built-in.o
                                        0x72a (size before relaxing)
 .rodata.str1.1
                0x000000000805511b       0x1b arch/arm/lib/eabi_compat.o
 .rodata.tab_seq
                0x0000000008055136        0x9 common/built-in.o
 .rodata.us_direction
                0x000000000805513f       0x20 common/built-in.o
 .rodata.vendor_id.8558
                0x000000000805515f        0x9 drivers/usb/gadget/built-in.o
 .rodata.version_string
                0x0000000008055168       0x34 common/built-in.o
                0x0000000008055168                version_string

.hash           0x000000000805519c       0x2c
 .hash          0x000000000805519c       0x2c arch/arm/cpu/armv7/start.o
                0x00000000080551c8                . = ALIGN (0x4)

.data           0x00000000080551c8     0x8c8a
 *(.data*)
 .data.g_atc260x_spi_slave
                0x00000000080551c8       0x1c arch/arm/cpu/armv7/built-in.o
                0x00000000080551c8                g_atc260x_spi_slave
 .data.pinctrl_info
                0x00000000080551e4       0x88 arch/arm/cpu/armv7/built-in.o
 .data.P_ETH_TXD0_schimmt_conf
                0x000000000805526c       0x10 arch/arm/cpu/armv7/built-in.o
 .data.P_DNAND_DQSN_pull_conf
                0x000000000805527c       0x14 arch/arm/cpu/armv7/built-in.o
 .data.owl_mfp2_23_funcs
                0x0000000008055290        0x8 arch/arm/cpu/armv7/built-in.o
 .data.P_I2C0_SDATA_schimtt_funcs
                0x0000000008055298        0x8 arch/arm/cpu/armv7/built-in.o
 .data.owl_mfp3_13_12_pads
                0x00000000080552a0        0x4 arch/arm/cpu/armv7/built-in.o
 .data.P_KS_OUT0_pull_conf
                0x00000000080552a4       0x14 arch/arm/cpu/armv7/built-in.o
 .data.owl_eth_smi_dummy_funcs
                0x00000000080552b8        0x8 arch/arm/cpu/armv7/built-in.o
 .data.owl_paddrv1_11_10_pads
                0x00000000080552c0       0x10 arch/arm/cpu/armv7/built-in.o
 .data.P_UART0_TX_schimtt_funcs
                0x00000000080552d0        0x4 arch/arm/cpu/armv7/built-in.o
 .data.owl_mfp1_31_29_ks_in1_funcs
                0x00000000080552d4       0x20 arch/arm/cpu/armv7/built-in.o
 .data.owl_mfp2_20_funcs
                0x00000000080552f4        0x8 arch/arm/cpu/armv7/built-in.o
 .data.owl_mfp1_25_23_pads
                0x00000000080552fc        0x4 arch/arm/cpu/armv7/built-in.o
 .data.P_SD1_D3_pull_conf
                0x0000000008055300       0x14 arch/arm/cpu/armv7/built-in.o
 .data.P_KS_IN3_pull_conf
                0x0000000008055314       0x14 arch/arm/cpu/armv7/built-in.o
 .data.owl_paddrv0_15_14_pads
                0x0000000008055328        0x4 arch/arm/cpu/armv7/built-in.o
 .data.owl_mfp0_18_16_eth_txd0_funcs
                0x000000000805532c       0x14 arch/arm/cpu/armv7/built-in.o
 .data.P_UART0_RX_schimtt_funcs
                0x0000000008055340        0x4 arch/arm/cpu/armv7/built-in.o
 .data.owl_mfp2_2_0_funcs
                0x0000000008055344       0x18 arch/arm/cpu/armv7/built-in.o
 .data.P_KS_OUT0_schimtt_funcs
                0x000000000805535c        0x4 arch/arm/cpu/armv7/built-in.o
 .data.owl_mfp0_25_23_funcs
                0x0000000008055360       0x14 arch/arm/cpu/armv7/built-in.o
 .data.owl_mfp3_11_10_funcs
                0x0000000008055374       0x10 arch/arm/cpu/armv7/built-in.o
 .data.P_I2C1_SCLK_pull_conf
                0x0000000008055384       0x14 arch/arm/cpu/armv7/built-in.o
 .data.owl_mfp3_29_28_pads
                0x0000000008055398        0x8 arch/arm/cpu/armv7/built-in.o
 .data.owl_paddrv1_23_22_pads
                0x00000000080553a0       0x10 arch/arm/cpu/armv7/built-in.o
 .data.owl_sirq0_dummy_pads
                0x00000000080553b0        0x4 arch/arm/cpu/armv7/built-in.o
 .data.owl_sirq1_dummy_funcs
                0x00000000080553b4        0x4 arch/arm/cpu/armv7/built-in.o
 .data.owl_mfp2_21_pads
                0x00000000080553b8        0x4 arch/arm/cpu/armv7/built-in.o
 .data.owl_mfp0_10_8_rmii_rxd1_pads
                0x00000000080553bc        0x4 arch/arm/cpu/armv7/built-in.o
 .data.P_DSI_DP2_schimmt_conf
                0x00000000080553c0       0x10 arch/arm/cpu/armv7/built-in.o
 .data.P_DSI_DN0_schimmt_conf
                0x00000000080553d0       0x10 arch/arm/cpu/armv7/built-in.o
 .data.P_I2S_MCLK1_schimmt_conf
                0x00000000080553e0       0x10 arch/arm/cpu/armv7/built-in.o
 .data.owl_paddrv2_31_30_pads
                0x00000000080553f0        0x4 arch/arm/cpu/armv7/built-in.o
 .data.owl_mfp1_18_17_pads
                0x00000000080553f4        0x4 arch/arm/cpu/armv7/built-in.o
 .data.P_KS_OUT2_pull_conf
                0x00000000080553f8       0x14 arch/arm/cpu/armv7/built-in.o
 .data.P_UART3_RX_schimtt_funcs
                0x000000000805540c        0x4 arch/arm/cpu/armv7/built-in.o
 .data.owl_mfp2_4_3_pads
                0x0000000008055410        0x4 arch/arm/cpu/armv7/built-in.o
 .data.P_SD0_CLK_pull_conf
                0x0000000008055414       0x14 arch/arm/cpu/armv7/built-in.o
 .data.owl_mfp1_9_7_pads
                0x0000000008055428        0x4 arch/arm/cpu/armv7/built-in.o
 .data.P_SD1_D1_pull_conf
                0x000000000805542c       0x14 arch/arm/cpu/armv7/built-in.o
 .data.atm7059_num_functions
                0x0000000008055440        0x4 arch/arm/cpu/armv7/built-in.o
                0x0000000008055440                atm7059_num_functions
 .data.P_SPI0_SCLK_pull_conf
                0x0000000008055444       0x14 arch/arm/cpu/armv7/built-in.o
 .data.owl_mfp0_10_8_rmii_rxd1_funcs
                0x0000000008055458       0x14 arch/arm/cpu/armv7/built-in.o
 .data.owl_mfp1_11_10_funcs
                0x000000000805546c       0x10 arch/arm/cpu/armv7/built-in.o
 .data.owl_paddrv2_19_18_pads
                0x000000000805547c        0x4 arch/arm/cpu/armv7/built-in.o
 .data.owl_mfp1_2_0_funcs
                0x0000000008055480       0x14 arch/arm/cpu/armv7/built-in.o
 .data.P_ETH_RXD1_schimtt_funcs
                0x0000000008055494        0x4 arch/arm/cpu/armv7/built-in.o
 .data.owl_mfp0_2_1_i2s1_funcs
                0x0000000008055498        0xc arch/arm/cpu/armv7/built-in.o
 .data.owl_paddrv0_21_20_pads
                0x00000000080554a4        0x4 arch/arm/cpu/armv7/built-in.o
 .data.owl_paddrv2_22_21_pads
                0x00000000080554a8       0x10 arch/arm/cpu/armv7/built-in.o
 .data.P_I2C2_SCLK_schimmt_conf
                0x00000000080554b8       0x10 arch/arm/cpu/armv7/built-in.o
 .data.P_I2C2_SDATA_schimmt_conf
                0x00000000080554c8       0x10 arch/arm/cpu/armv7/built-in.o
 .data.owl_mfp3_5_4_funcs
                0x00000000080554d8       0x10 arch/arm/cpu/armv7/built-in.o
 .data.P_I2S_LRCLK0_schimmt_conf
                0x00000000080554e8       0x10 arch/arm/cpu/armv7/built-in.o
 .data.P_I2C1_SCLK_schimtt_funcs
                0x00000000080554f8        0x4 arch/arm/cpu/armv7/built-in.o
 .data.owl_paddrv0_13_12_pads
                0x00000000080554fc        0x8 arch/arm/cpu/armv7/built-in.o
 .data.owl_mfp2_23_pads
                0x0000000008055504        0x4 arch/arm/cpu/armv7/built-in.o
 .data.P_DNAND_RDBN_pull_conf
                0x0000000008055508       0x14 arch/arm/cpu/armv7/built-in.o
 .data.P_PCM1_SYNC_schimtt_funcs
                0x000000000805551c        0x4 arch/arm/cpu/armv7/built-in.o
 .data.owl_mfp2_13_11_pads
                0x0000000008055520        0x8 arch/arm/cpu/armv7/built-in.o
 .data.owl_mfp2_6_5_funcs
                0x0000000008055528        0xc arch/arm/cpu/armv7/built-in.o
 .data.owl_mfp3_2_funcs
                0x0000000008055534        0x8 arch/arm/cpu/armv7/built-in.o
 .data.owl_mfp0_18_16_eth_txd1_funcs
                0x000000000805553c       0x14 arch/arm/cpu/armv7/built-in.o
 .data.owl_mfp1_22_21_funcs
                0x0000000008055550        0xc arch/arm/cpu/armv7/built-in.o
 .data.owl_mfp1_18_17_funcs
                0x000000000805555c       0x10 arch/arm/cpu/armv7/built-in.o
 .data.owl_paddrv1_21_20_pads
                0x000000000805556c       0x10 arch/arm/cpu/armv7/built-in.o
 .data.owl_mfp3_7_6_funcs
                0x000000000805557c       0x10 arch/arm/cpu/armv7/built-in.o
 .data.owl_i2c1_dummy_pads
                0x000000000805558c        0x8 arch/arm/cpu/armv7/built-in.o
 .data.owl_mfp3_18_16_pads
                0x0000000008055594        0x8 arch/arm/cpu/armv7/built-in.o
 .data.owl_uart3_dummy_pads
                0x000000000805559c        0x8 arch/arm/cpu/armv7/built-in.o
 .data.owl_mfp1_9_7_funcs
                0x00000000080555a4       0x14 arch/arm/cpu/armv7/built-in.o
 .data.owl_sd1_dummy_pads
                0x00000000080555b8        0x4 arch/arm/cpu/armv7/built-in.o
 .data.P_SD1_CMD_pull_conf
                0x00000000080555bc       0x14 arch/arm/cpu/armv7/built-in.o
 .data.owl_mfp0_0_funcs
                0x00000000080555d0        0x8 arch/arm/cpu/armv7/built-in.o
 .data.P_PCM1_IN_schimtt_funcs
                0x00000000080555d8        0x4 arch/arm/cpu/armv7/built-in.o
 .data.atm7059_num_pads
                0x00000000080555dc        0x4 arch/arm/cpu/armv7/built-in.o
                0x00000000080555dc                atm7059_num_pads
 .data.owl_paddrv0_3_2_pads
                0x00000000080555e0       0x10 arch/arm/cpu/armv7/built-in.o
 .data.P_PCM1_SYNC_schimmt_conf
                0x00000000080555f0       0x10 arch/arm/cpu/armv7/built-in.o
 .data.P_I2S_MCLK0_schimmt_conf
                0x0000000008055600       0x10 arch/arm/cpu/armv7/built-in.o
 .data.owl_i2c2_dummy_pads
                0x0000000008055610        0x8 arch/arm/cpu/armv7/built-in.o
 .data.P_PCM1_OUT_pull_conf
                0x0000000008055618       0x14 arch/arm/cpu/armv7/built-in.o
 .data.P_ETH_RXER_schimtt_funcs
                0x000000000805562c        0x4 arch/arm/cpu/armv7/built-in.o
 .data.P_UART3_RX_schimmt_conf
                0x0000000008055630       0x10 arch/arm/cpu/armv7/built-in.o
 .data.P_UART0_RX_schimmt_conf
                0x0000000008055640       0x10 arch/arm/cpu/armv7/built-in.o
 .data.P_KS_IN0_schimtt_funcs
                0x0000000008055650        0x4 arch/arm/cpu/armv7/built-in.o
 .data.P_KS_IN2_pull_conf
                0x0000000008055654       0x14 arch/arm/cpu/armv7/built-in.o
 .data.P_DSI_CP_pull_conf
                0x0000000008055668       0x14 arch/arm/cpu/armv7/built-in.o
 .data.P_ETH_TXD0_schimtt_funcs
                0x000000000805567c        0x8 arch/arm/cpu/armv7/built-in.o
 .data.P_SD0_D1_pull_conf
                0x0000000008055684       0x14 arch/arm/cpu/armv7/built-in.o
 .data.P_I2C0_SCLK_pull_conf
                0x0000000008055698       0x14 arch/arm/cpu/armv7/built-in.o
 .data.P_ETH_TXEN_schimtt_funcs
                0x00000000080556ac        0x4 arch/arm/cpu/armv7/built-in.o
 .data.owl_mfp1_25_23_funcs
                0x00000000080556b0       0x18 arch/arm/cpu/armv7/built-in.o
 .data.P_ETH_TXEN_schimmt_conf
                0x00000000080556c8       0x10 arch/arm/cpu/armv7/built-in.o
 .data.owl_paddrv2_3_2_pads
                0x00000000080556d8       0x10 arch/arm/cpu/armv7/built-in.o
 .data.owl_mfp2_16_14_funcs
                0x00000000080556e8       0x18 arch/arm/cpu/armv7/built-in.o
 .data.owl_uart3_dummy_funcs
                0x0000000008055700        0x4 arch/arm/cpu/armv7/built-in.o
 .data.owl_mfp0_0_pads
                0x0000000008055704        0x4 arch/arm/cpu/armv7/built-in.o
 .data.owl_mfp0_18_16_eth_txd0_pads
                0x0000000008055708        0x4 arch/arm/cpu/armv7/built-in.o
 .data.owl_paddrv0_7_6_pads
                0x000000000805570c        0xc arch/arm/cpu/armv7/built-in.o
 .data.owl_mfp1_28_26_ks_out0_funcs
                0x0000000008055718       0x1c arch/arm/cpu/armv7/built-in.o
 .data.owl_paddrv0_1_0_pads
                0x0000000008055734       0x10 arch/arm/cpu/armv7/built-in.o
 .data.owl_i2c2_dummy_funcs
                0x0000000008055744        0x4 arch/arm/cpu/armv7/built-in.o
 .data.owl_mfp1_22_21_pads
                0x0000000008055748       0x28 arch/arm/cpu/armv7/built-in.o
 .data.P_UART2_RTSB_schimtt_funcs
                0x0000000008055770        0x4 arch/arm/cpu/armv7/built-in.o
 .data.P_SD0_CLK_schimmt_conf
                0x0000000008055774       0x10 arch/arm/cpu/armv7/built-in.o
 .data.owl_mfp0_5_pads
                0x0000000008055784        0x4 arch/arm/cpu/armv7/built-in.o
 .data.P_KS_OUT2_schimtt_funcs
                0x0000000008055788        0x4 arch/arm/cpu/armv7/built-in.o
 .data.owl_mfp0_18_16_eth_txd1_pads
                0x000000000805578c        0x4 arch/arm/cpu/armv7/built-in.o
 .data.owl_mfp1_31_29_ks_in2_pads
                0x0000000008055790        0x4 arch/arm/cpu/armv7/built-in.o
 .data.P_DSI_DN0_schimtt_funcs
                0x0000000008055794        0x4 arch/arm/cpu/armv7/built-in.o
 .data.owl_mfp2_13_11_funcs
                0x0000000008055798       0x18 arch/arm/cpu/armv7/built-in.o
 .data.P_DSI_DP1_pull_conf
                0x00000000080557b0       0x14 arch/arm/cpu/armv7/built-in.o
 .data.owl_mfp2_26_24_funcs
                0x00000000080557c4       0x14 arch/arm/cpu/armv7/built-in.o
 .data.P_I2S_MCLK1_schimtt_funcs
                0x00000000080557d8        0x4 arch/arm/cpu/armv7/built-in.o
 .data.owl_mfp0_7_6_funcs
                0x00000000080557dc       0x14 arch/arm/cpu/armv7/built-in.o
 .data.owl_mfp3_7_6_pads
                0x00000000080557f0        0x4 arch/arm/cpu/armv7/built-in.o
 .data.owl_paddrv0_5_4_pads
                0x00000000080557f4        0xc arch/arm/cpu/armv7/built-in.o
 .data.P_CLKO_25M_pull_conf
                0x0000000008055800       0x14 arch/arm/cpu/armv7/built-in.o
 .data.P_KS_IN0_pull_conf
                0x0000000008055814       0x14 arch/arm/cpu/armv7/built-in.o
 .data.P_I2S_LRCLK1_schimmt_conf
                0x0000000008055828       0x10 arch/arm/cpu/armv7/built-in.o
 .data.owl_mfp0_15_13_rmii_txen_pads
                0x0000000008055838        0x4 arch/arm/cpu/armv7/built-in.o
 .data.P_DSI_DP0_schimmt_conf
                0x000000000805583c       0x10 arch/arm/cpu/armv7/built-in.o
 .data.owl_paddrv1_15_14_pads
                0x000000000805584c        0x4 arch/arm/cpu/armv7/built-in.o
 .data.owl_mfp0_4_3_pads
                0x0000000008055850        0x8 arch/arm/cpu/armv7/built-in.o
 .data.owl_eth_smi_dummy_pads
                0x0000000008055858        0x8 arch/arm/cpu/armv7/built-in.o
 .data.owl_mfp2_26_24_pads
                0x0000000008055860        0x4 arch/arm/cpu/armv7/built-in.o
 .data.P_I2S_BCLK0_schimtt_funcs
                0x0000000008055864        0x4 arch/arm/cpu/armv7/built-in.o
 .data.owl_mfp2_28_27_funcs
                0x0000000008055868        0xc arch/arm/cpu/armv7/built-in.o
 .data.P_ETH_RXER_pull_conf
                0x0000000008055874       0x14 arch/arm/cpu/armv7/built-in.o
 .data.P_I2C1_SDATA_schimtt_funcs
                0x0000000008055888        0x4 arch/arm/cpu/armv7/built-in.o
 .data.owl_mfp2_22_funcs
                0x000000000805588c        0x8 arch/arm/cpu/armv7/built-in.o
 .data.owl_i2c1_dummy_funcs
                0x0000000008055894        0x4 arch/arm/cpu/armv7/built-in.o
 .data.owl_paddrv0_19_18_pads
                0x0000000008055898        0x4 arch/arm/cpu/armv7/built-in.o
 .data.owl_mfp2_19_17_funcs
                0x000000000805589c       0x18 arch/arm/cpu/armv7/built-in.o
 .data.owl_paddrv2_29_28_pads
                0x00000000080558b4        0x4 arch/arm/cpu/armv7/built-in.o
 .data.P_I2C2_SDATA_schimtt_funcs
                0x00000000080558b8        0x4 arch/arm/cpu/armv7/built-in.o
 .data.owl_mfp2_16_14_pads
                0x00000000080558bc        0x4 arch/arm/cpu/armv7/built-in.o
 .data.owl_mfp2_8_7_pads
                0x00000000080558c0        0x4 arch/arm/cpu/armv7/built-in.o
 .data.owl_mfp1_4_3_funcs
                0x00000000080558c4       0x10 arch/arm/cpu/armv7/built-in.o
 .data.owl_nand_dummy_pads
                0x00000000080558d4       0x10 arch/arm/cpu/armv7/built-in.o
 .data.owl_mfp2_19_17_pads
                0x00000000080558e4        0x4 arch/arm/cpu/armv7/built-in.o
 .data.P_SPI0_MOSI_schimmt_conf
                0x00000000080558e8       0x10 arch/arm/cpu/armv7/built-in.o
 .data.P_ETH_CRS_DV_schimtt_funcs
                0x00000000080558f8        0x8 arch/arm/cpu/armv7/built-in.o
 .data.P_SD0_CMD_pull_conf
                0x0000000008055900       0x14 arch/arm/cpu/armv7/built-in.o
 .data.owl_mfp0_15_13_rmii_rxen_funcs
                0x0000000008055914       0x10 arch/arm/cpu/armv7/built-in.o
 .data.owl_mfp2_20_pads
                0x0000000008055924        0x4 arch/arm/cpu/armv7/built-in.o
 .data.owl_mfp0_15_13_rmii_txen_funcs
                0x0000000008055928       0x10 arch/arm/cpu/armv7/built-in.o
 .data.owl_paddrv1_27_26_pads
                0x0000000008055938       0x18 arch/arm/cpu/armv7/built-in.o
 .data.P_DSI_CN_pull_conf
                0x0000000008055950       0x14 arch/arm/cpu/armv7/built-in.o
 .data.owl_mfp3_15_14_funcs
                0x0000000008055964        0x8 arch/arm/cpu/armv7/built-in.o
 .data.owl_mfp3_1_0_nand_ceb3_funcs
                0x000000000805596c        0x8 arch/arm/cpu/armv7/built-in.o
 .data.owl_mfp3_9_8_pads
                0x0000000008055974        0x4 arch/arm/cpu/armv7/built-in.o
 .data.owl_mfp0_25_23_pads
                0x0000000008055978        0x4 arch/arm/cpu/armv7/built-in.o
 .data.owl_mfp1_16_14_funcs
                0x000000000805597c       0x14 arch/arm/cpu/armv7/built-in.o
 .data.P_SD0_D3_pull_conf
                0x0000000008055990       0x14 arch/arm/cpu/armv7/built-in.o
 .data.P_SPI0_MISO_schimmt_conf
                0x00000000080559a4       0x10 arch/arm/cpu/armv7/built-in.o
 .data.P_SPI0_SS_schimmt_conf
                0x00000000080559b4       0x10 arch/arm/cpu/armv7/built-in.o
 .data.owl_paddrv1_13_12_pads
                0x00000000080559c4        0x4 arch/arm/cpu/armv7/built-in.o
 .data.owl_paddrv1_31_30_pads
                0x00000000080559c8        0xc arch/arm/cpu/armv7/built-in.o
 .data.P_SPI0_SCLK_schimmt_conf
                0x00000000080559d4       0x10 arch/arm/cpu/armv7/built-in.o
 .data.P_I2C0_SDATA_schimmt_conf
                0x00000000080559e4       0x10 arch/arm/cpu/armv7/built-in.o
 .data.P_SD0_CLK_schimtt_funcs
                0x00000000080559f4        0x4 arch/arm/cpu/armv7/built-in.o
 .data.owl_mfp3_18_16_funcs
                0x00000000080559f8       0x14 arch/arm/cpu/armv7/built-in.o
 .data.owl_mfp2_22_pads
                0x0000000008055a0c        0x4 arch/arm/cpu/armv7/built-in.o
 .data.owl_mfp2_8_7_funcs
                0x0000000008055a10       0x10 arch/arm/cpu/armv7/built-in.o
 .data.owl_mfp2_10_9_funcs
                0x0000000008055a20       0x10 arch/arm/cpu/armv7/built-in.o
 .data.P_SIRQ0_pull_conf
                0x0000000008055a30       0x14 arch/arm/cpu/armv7/built-in.o
 .data.P_KS_IN0_schimmt_conf
                0x0000000008055a44       0x10 arch/arm/cpu/armv7/built-in.o
 .data.P_I2C2_SCLK_pull_conf
                0x0000000008055a54       0x14 arch/arm/cpu/armv7/built-in.o
 .data.P_DNAND_DQS_pull_conf
                0x0000000008055a68       0x14 arch/arm/cpu/armv7/built-in.o
 .data.P_ETH_CRS_DV_schimmt_conf
                0x0000000008055a7c       0x10 arch/arm/cpu/armv7/built-in.o
 .data.owl_mfp3_3_funcs
                0x0000000008055a8c        0x8 arch/arm/cpu/armv7/built-in.o
 .data.P_SPI0_MOSI_schimtt_funcs
                0x0000000008055a94        0xc arch/arm/cpu/armv7/built-in.o
 .data.owl_mfp2_10_9_pads
                0x0000000008055aa0       0x10 arch/arm/cpu/armv7/built-in.o
 .data.owl_mfp1_4_3_pads
                0x0000000008055ab0        0x8 arch/arm/cpu/armv7/built-in.o
 .data.P_PCM1_SYNC_pull_conf
                0x0000000008055ab8       0x14 arch/arm/cpu/armv7/built-in.o
 .data.owl_mfp1_2_0_pads
                0x0000000008055acc        0x8 arch/arm/cpu/armv7/built-in.o
 .data.owl_mfp2_6_5_pads
                0x0000000008055ad4        0x4 arch/arm/cpu/armv7/built-in.o
 .data.owl_paddrv1_29_28_pads
                0x0000000008055ad8       0x50 arch/arm/cpu/armv7/built-in.o
 .data.owl_sirq2_dummy_funcs
                0x0000000008055b28        0x4 arch/arm/cpu/armv7/built-in.o
 .data.P_PCM1_CLK_schimtt_funcs
                0x0000000008055b2c        0x4 arch/arm/cpu/armv7/built-in.o
 .data.P_UART2_RX_schimtt_funcs
                0x0000000008055b30        0x4 arch/arm/cpu/armv7/built-in.o
 .data.owl_mfp3_23_22_funcs
                0x0000000008055b34       0x10 arch/arm/cpu/armv7/built-in.o
 .data.P_ETH_RXD1_schimmt_conf
                0x0000000008055b44       0x10 arch/arm/cpu/armv7/built-in.o
 .data.P_SD1_D2_pull_conf
                0x0000000008055b54       0x14 arch/arm/cpu/armv7/built-in.o
 .data.P_UART2_CTSB_schimtt_funcs
                0x0000000008055b68        0x4 arch/arm/cpu/armv7/built-in.o
 .data.P_KS_OUT2_schimmt_conf
                0x0000000008055b6c       0x10 arch/arm/cpu/armv7/built-in.o
 .data.owl_mfp1_28_26_ks_in3_funcs
                0x0000000008055b7c       0x18 arch/arm/cpu/armv7/built-in.o
 .data.P_DSI_DP2_schimtt_funcs
                0x0000000008055b94        0x4 arch/arm/cpu/armv7/built-in.o
 .data.P_DSI_DP0_schimtt_funcs
                0x0000000008055b98        0x8 arch/arm/cpu/armv7/built-in.o
 .data.P_UART2_RX_schimmt_conf
                0x0000000008055ba0       0x10 arch/arm/cpu/armv7/built-in.o
 .data.P_PCM1_IN_schimmt_conf
                0x0000000008055bb0       0x10 arch/arm/cpu/armv7/built-in.o
 .data.owl_mfp0_5_funcs
                0x0000000008055bc0        0x8 arch/arm/cpu/armv7/built-in.o
 .data.P_UART3_CTSB_schimmt_conf
                0x0000000008055bc8       0x10 arch/arm/cpu/armv7/built-in.o
 .data.P_I2S_LRCLK1_schimtt_funcs
                0x0000000008055bd8        0x4 arch/arm/cpu/armv7/built-in.o
 .data.owl_paddrv1_19_18_pads
                0x0000000008055bdc        0x4 arch/arm/cpu/armv7/built-in.o
 .data.atm7059_num_groups
                0x0000000008055be0        0x4 arch/arm/cpu/armv7/built-in.o
                0x0000000008055be0                atm7059_num_groups
 .data.P_PCM1_CLK_schimmt_conf
                0x0000000008055be4       0x10 arch/arm/cpu/armv7/built-in.o
 .data.owl_mfp1_13_12_funcs
                0x0000000008055bf4       0x10 arch/arm/cpu/armv7/built-in.o
 .data.P_KS_OUT0_schimmt_conf
                0x0000000008055c04       0x10 arch/arm/cpu/armv7/built-in.o
 .data.P_UART3_RTSB_schimmt_conf
                0x0000000008055c14       0x10 arch/arm/cpu/armv7/built-in.o
 .data.owl_paddrv0_11_10_pads
                0x0000000008055c24        0x4 arch/arm/cpu/armv7/built-in.o
 .data.P_UART2_CTSB_schimmt_conf
                0x0000000008055c28       0x10 arch/arm/cpu/armv7/built-in.o
 .data.P_DSI_DN2_schimtt_funcs
                0x0000000008055c38        0x8 arch/arm/cpu/armv7/built-in.o
 .data.owl_mfp3_23_22_pads
                0x0000000008055c40        0x4 arch/arm/cpu/armv7/built-in.o
 .data.P_UART0_TX_pull_conf
                0x0000000008055c44       0x14 arch/arm/cpu/armv7/built-in.o
 .data.P_ETH_RXD0_schimtt_funcs
                0x0000000008055c58        0x4 arch/arm/cpu/armv7/built-in.o
 .data.owl_mfp1_11_10_pads
                0x0000000008055c5c        0x4 arch/arm/cpu/armv7/built-in.o
 .data.owl_mfp2_30_29_funcs
                0x0000000008055c60        0xc arch/arm/cpu/armv7/built-in.o
 .data.P_I2C0_SCLK_schimmt_conf
                0x0000000008055c6c       0x10 arch/arm/cpu/armv7/built-in.o
 .data.P_UART3_RTSB_schimtt_funcs
                0x0000000008055c7c        0x4 arch/arm/cpu/armv7/built-in.o
 .data.owl_sirq1_dummy_pads
                0x0000000008055c80        0x4 arch/arm/cpu/armv7/built-in.o
 .data.P_SD1_D0_pull_conf
                0x0000000008055c84       0x14 arch/arm/cpu/armv7/built-in.o
 .data.owl_mfp3_29_28_funcs
                0x0000000008055c98        0x8 arch/arm/cpu/armv7/built-in.o
 .data.owl_mfp0_4_3_funcs
                0x0000000008055ca0        0xc arch/arm/cpu/armv7/built-in.o
 .data.owl_mfp2_4_3_funcs
                0x0000000008055cac        0x8 arch/arm/cpu/armv7/built-in.o
 .data.owl_mfp0_2_1_i2s0_funcs
                0x0000000008055cb4        0xc arch/arm/cpu/armv7/built-in.o
 .data.P_I2S_BCLK0_schimmt_conf
                0x0000000008055cc0       0x10 arch/arm/cpu/armv7/built-in.o
 .data.owl_dsi_dummy_pads
                0x0000000008055cd0        0x4 arch/arm/cpu/armv7/built-in.o
 .data.owl_mfp1_31_29_ks_in1_pads
                0x0000000008055cd4        0x4 arch/arm/cpu/armv7/built-in.o
 .data.owl_paddrv0_23_22_pads
                0x0000000008055cd8        0xc arch/arm/cpu/armv7/built-in.o
 .data.owl_paddrv2_24_23_pads
                0x0000000008055ce4        0x8 arch/arm/cpu/armv7/built-in.o
 .data.owl_mfp0_10_8_rmii_rxd0_pads
                0x0000000008055cec        0x4 arch/arm/cpu/armv7/built-in.o
 .data.owl_mfp3_9_8_funcs
                0x0000000008055cf0       0x10 arch/arm/cpu/armv7/built-in.o
 .data.P_DSI_DN2_pull_conf
                0x0000000008055d00       0x14 arch/arm/cpu/armv7/built-in.o
 .data.P_SPI0_SS_schimtt_funcs
                0x0000000008055d14        0x4 arch/arm/cpu/armv7/built-in.o
 .data.owl_mfp3_1_0_nand_ceb3_pads
                0x0000000008055d18        0x4 arch/arm/cpu/armv7/built-in.o
 .data.P_SIRQ2_pull_conf
                0x0000000008055d1c       0x14 arch/arm/cpu/armv7/built-in.o
 .data.owl_mfp0_22_20_pads
                0x0000000008055d30        0x4 arch/arm/cpu/armv7/built-in.o
 .data.P_SIRQ1_pull_conf
                0x0000000008055d34       0x14 arch/arm/cpu/armv7/built-in.o
 .data.P_SD0_D2_pull_conf
                0x0000000008055d48       0x14 arch/arm/cpu/armv7/built-in.o
 .data.owl_mfp0_2_1_i2s0_pads
                0x0000000008055d5c        0x4 arch/arm/cpu/armv7/built-in.o
 .data.owl_mfp3_5_4_pads
                0x0000000008055d60        0x4 arch/arm/cpu/armv7/built-in.o
 .data.P_KS_OUT1_schimmt_conf
                0x0000000008055d64       0x10 arch/arm/cpu/armv7/built-in.o
 .data.owl_mfp1_28_26_ks_out0_pads
                0x0000000008055d74        0x4 arch/arm/cpu/armv7/built-in.o
 .data.P_ETH_RXER_schimmt_conf
                0x0000000008055d78       0x10 arch/arm/cpu/armv7/built-in.o
 .data.P_I2C2_SDATA_pull_conf
                0x0000000008055d88       0x14 arch/arm/cpu/armv7/built-in.o
 .data.owl_mfp0_10_8_rmii_rxd0_funcs
                0x0000000008055d9c       0x14 arch/arm/cpu/armv7/built-in.o
 .data.P_KS_OUT1_pull_conf
                0x0000000008055db0       0x14 arch/arm/cpu/armv7/built-in.o
 .data.owl_mfp1_31_29_ks_in0_funcs
                0x0000000008055dc4       0x20 arch/arm/cpu/armv7/built-in.o
 .data.P_ETH_TXD1_schimmt_conf
                0x0000000008055de4       0x10 arch/arm/cpu/armv7/built-in.o
 .data.owl_uart2_dummy_funcs
                0x0000000008055df4        0x4 arch/arm/cpu/armv7/built-in.o
 .data.owl_mfp1_6_5_funcs
                0x0000000008055df8       0x10 arch/arm/cpu/armv7/built-in.o
 .data.owl_sd1_dummy_funcs
                0x0000000008055e08        0x4 arch/arm/cpu/armv7/built-in.o
 .data.owl_mfp3_21_19_funcs
                0x0000000008055e0c       0x1c arch/arm/cpu/armv7/built-in.o
 .data.P_I2C1_SDATA_pull_conf
                0x0000000008055e28       0x14 arch/arm/cpu/armv7/built-in.o
 .data.P_ETH_TXD1_schimtt_funcs
                0x0000000008055e3c        0x4 arch/arm/cpu/armv7/built-in.o
 .data.owl_sirq2_dummy_pads
                0x0000000008055e40        0x4 arch/arm/cpu/armv7/built-in.o
 .data.P_ETH_REF_CLK_schimmt_conf
                0x0000000008055e44       0x10 arch/arm/cpu/armv7/built-in.o
 .data.P_SPI0_MISO_schimtt_funcs
                0x0000000008055e54        0xc arch/arm/cpu/armv7/built-in.o
 .data.owl_mfp1_31_29_ks_in2_funcs
                0x0000000008055e60       0x20 arch/arm/cpu/armv7/built-in.o
 .data.P_DSI_DN2_schimmt_conf
                0x0000000008055e80       0x10 arch/arm/cpu/armv7/built-in.o
 .data.P_UART2_RTSB_schimmt_conf
                0x0000000008055e90       0x10 arch/arm/cpu/armv7/built-in.o
 .data.P_SPI0_MOSI_pull_conf
                0x0000000008055ea0       0x14 arch/arm/cpu/armv7/built-in.o
 .data.owl_sirq0_dummy_funcs
                0x0000000008055eb4        0x4 arch/arm/cpu/armv7/built-in.o
 .data.owl_mfp1_31_29_ks_in0_pads
                0x0000000008055eb8        0x4 arch/arm/cpu/armv7/built-in.o
 .data.owl_mfp3_3_pads
                0x0000000008055ebc       0x28 arch/arm/cpu/armv7/built-in.o
 .data.P_I2C0_SDATA_pull_conf
                0x0000000008055ee4       0x14 arch/arm/cpu/armv7/built-in.o
 .data.owl_mfp2_28_27_pads
                0x0000000008055ef8       0x20 arch/arm/cpu/armv7/built-in.o
 .data.owl_dsi_dummy_funcs
                0x0000000008055f18        0x4 arch/arm/cpu/armv7/built-in.o
 .data.owl_mfp3_11_10_pads
                0x0000000008055f1c        0x4 arch/arm/cpu/armv7/built-in.o
 .data.P_I2S_LRCLK0_schimtt_funcs
                0x0000000008055f20        0x4 arch/arm/cpu/armv7/built-in.o
 .data.owl_mfp3_15_14_pads
                0x0000000008055f24       0x20 arch/arm/cpu/armv7/built-in.o
 .data.owl_paddrv2_27_26_pads
                0x0000000008055f44       0x10 arch/arm/cpu/armv7/built-in.o
 .data.P_KS_IN1_pull_conf
                0x0000000008055f54       0x14 arch/arm/cpu/armv7/built-in.o
 .data.P_DSI_DN3_pull_conf
                0x0000000008055f68       0x14 arch/arm/cpu/armv7/built-in.o
 .data.owl_mfp1_28_26_ks_out1_funcs
                0x0000000008055f7c       0x1c arch/arm/cpu/armv7/built-in.o
 .data.P_SD0_D0_pull_conf
                0x0000000008055f98       0x14 arch/arm/cpu/armv7/built-in.o
 .data.P_I2C1_SDATA_schimmt_conf
                0x0000000008055fac       0x10 arch/arm/cpu/armv7/built-in.o
 .data.owl_mfp2_21_funcs
                0x0000000008055fbc        0x8 arch/arm/cpu/armv7/built-in.o
 .data.owl_mfp2_30_29_pads
                0x0000000008055fc4        0xc arch/arm/cpu/armv7/built-in.o
 .data.P_KS_OUT1_schimtt_funcs
                0x0000000008055fd0        0x4 arch/arm/cpu/armv7/built-in.o
 .data.owl_mfp0_7_6_pads
                0x0000000008055fd4        0x4 arch/arm/cpu/armv7/built-in.o
 .data.owl_mfp3_2_pads
                0x0000000008055fd8       0x10 arch/arm/cpu/armv7/built-in.o
 .data.owl_mfp0_2_1_i2s1_pads
                0x0000000008055fe8        0xc arch/arm/cpu/armv7/built-in.o
 .data.atm7059_pad_tab
                0x0000000008055ff4      0xa10 arch/arm/cpu/armv7/built-in.o
                0x0000000008055ff4                atm7059_pad_tab
 .data.owl_mfp3_21_19_pads
                0x0000000008056a04        0x4 arch/arm/cpu/armv7/built-in.o
 .data.owl_mfp3_30_funcs
                0x0000000008056a08        0x8 arch/arm/cpu/armv7/built-in.o
 .data.P_UART3_CTSB_schimtt_funcs
                0x0000000008056a10        0x4 arch/arm/cpu/armv7/built-in.o
 .data.P_I2C0_SCLK_schimtt_funcs
                0x0000000008056a14        0xc arch/arm/cpu/armv7/built-in.o
 .data.P_I2S_MCLK0_schimtt_funcs
                0x0000000008056a20        0x4 arch/arm/cpu/armv7/built-in.o
 .data.owl_mfp1_28_26_ks_out1_pads
                0x0000000008056a24        0x4 arch/arm/cpu/armv7/built-in.o
 .data.owl_paddrv0_17_16_pads
                0x0000000008056a28        0x8 arch/arm/cpu/armv7/built-in.o
 .data.owl_mfp0_22_20_funcs
                0x0000000008056a30       0x14 arch/arm/cpu/armv7/built-in.o
 .data.owl_paddrv0_9_8_pads
                0x0000000008056a44        0x4 arch/arm/cpu/armv7/built-in.o
 .data.P_LCD0_D17_pull_conf
                0x0000000008056a48       0x14 arch/arm/cpu/armv7/built-in.o
 .data.owl_mfp1_6_5_pads
                0x0000000008056a5c        0x8 arch/arm/cpu/armv7/built-in.o
 .data.owl_uart2_dummy_pads
                0x0000000008056a64        0x8 arch/arm/cpu/armv7/built-in.o
 .data.owl_mfp3_30_pads
                0x0000000008056a6c        0x4 arch/arm/cpu/armv7/built-in.o
 .data.owl_mfp2_2_0_pads
                0x0000000008056a70        0x4 arch/arm/cpu/armv7/built-in.o
 .data.owl_paddrv1_25_24_pads
                0x0000000008056a74       0x10 arch/arm/cpu/armv7/built-in.o
 .data.owl_paddrv2_13_12_pads
                0x0000000008056a84        0x4 arch/arm/cpu/armv7/built-in.o
 .data.P_I2C1_SCLK_schimmt_conf
                0x0000000008056a88       0x10 arch/arm/cpu/armv7/built-in.o
 .data.owl_mfp3_13_12_funcs
                0x0000000008056a98        0xc arch/arm/cpu/armv7/built-in.o
 .data.P_UART0_RX_pull_conf
                0x0000000008056aa4       0x14 arch/arm/cpu/armv7/built-in.o
 .data.owl_mfp0_15_13_rmii_rxen_pads
                0x0000000008056ab8        0x4 arch/arm/cpu/armv7/built-in.o
 .data.P_SPI0_SCLK_schimtt_funcs
                0x0000000008056abc        0xc arch/arm/cpu/armv7/built-in.o
 .data.owl_nand_dummy_funcs
                0x0000000008056ac8        0x4 arch/arm/cpu/armv7/built-in.o
 .data.P_ETH_REF_CLK_schimtt_funcs
                0x0000000008056acc        0x8 arch/arm/cpu/armv7/built-in.o
 .data.owl_paddrv0_29_28_pads
                0x0000000008056ad4        0xc arch/arm/cpu/armv7/built-in.o
 .data.owl_paddrv1_17_16_pads
                0x0000000008056ae0        0x4 arch/arm/cpu/armv7/built-in.o
 .data.P_ETH_RXD0_schimmt_conf
                0x0000000008056ae4       0x10 arch/arm/cpu/armv7/built-in.o
 .data.owl_mfp3_1_0_nand_ceb2_funcs
                0x0000000008056af4        0x8 arch/arm/cpu/armv7/built-in.o
 .data.owl_mfp3_1_0_nand_ceb2_pads
                0x0000000008056afc        0x4 arch/arm/cpu/armv7/built-in.o
 .data.P_UART0_TX_schimmt_conf
                0x0000000008056b00       0x10 arch/arm/cpu/armv7/built-in.o
 .data.owl_mfp1_16_14_pads
                0x0000000008056b10        0x4 arch/arm/cpu/armv7/built-in.o
 .data.owl_mfp1_20_19_pads
                0x0000000008056b14        0x4 arch/arm/cpu/armv7/built-in.o
 .data.owl_mfp1_13_12_pads
                0x0000000008056b18        0x4 arch/arm/cpu/armv7/built-in.o
 .data.owl_mfp1_20_19_funcs
                0x0000000008056b1c        0xc arch/arm/cpu/armv7/built-in.o
 .data.owl_mfp1_28_26_ks_in3_pads
                0x0000000008056b28        0x4 arch/arm/cpu/armv7/built-in.o
 .data.P_I2C2_SCLK_schimtt_funcs
                0x0000000008056b2c        0x4 arch/arm/cpu/armv7/built-in.o
 .data.pwm_hw_array
                0x0000000008056b30       0x60 arch/arm/cpu/armv7/built-in.o
                0x0000000008056b30                pwm_hw_array
 .data.hash_algo
                0x0000000008056b90       0x54 common/built-in.o
 .data.reserved_list
                0x0000000008056be4       0x84 common/built-in.o
 .data.init_sequence_f
                0x0000000008056c68       0x90 common/built-in.o
 .data.init_sequence_r
                0x0000000008056cf8       0x70 common/built-in.o
                0x0000000008056cf8                init_sequence_r
 .data.bootm_help_text
                0x0000000008056d68      0x4ce common/built-in.o
 .data.bootz_help_text
                0x0000000008057236      0x208 common/built-in.o
 *fill*         0x000000000805743e        0x2 
 .data.cmd_bootm_sub
                0x0000000008057440       0xd8 common/built-in.o
 .data.booti_help_text
                0x0000000008057518      0x1bd common/built-in.o
 *fill*         0x00000000080576d5        0x3 
 .data.first_call
                0x00000000080576d8        0x8 common/built-in.o
 .data.env_name_spec
                0x00000000080576e0        0x4 common/built-in.o
                0x00000000080576e0                env_name_spec
 .data.source_help_text
                0x00000000080576e4       0xac common/built-in.o
 .data.tabs.7616
                0x0000000008057790       0x21 common/built-in.o
 .data.root.7533
                0x00000000080577b1        0x2 common/built-in.o
 .data.fdt_help_text
                0x00000000080577b3      0x5e3 common/built-in.o
 *fill*         0x0000000008057d96        0x2 
 .data.dp_last_length
                0x0000000008057d98        0x4 common/built-in.o
 .data.curr_device
                0x0000000008057d9c        0x4 common/built-in.o
 .data.cmd_mmc  0x0000000008057da0       0xf0 common/built-in.o
 .data.usb_stor_curr_dev
                0x0000000008057e90        0x4 common/built-in.o
 .data.ums_dev  0x0000000008057e94       0x18 common/built-in.o
 .data.env_help_text
                0x0000000008057eac      0x1f3 common/built-in.o
 *fill*         0x000000000805809f        0x1 
 .data.env_id   0x00000000080580a0        0x4 common/built-in.o
 .data.cmd_env_sub
                0x00000000080580a4       0xc0 common/built-in.o
 .data.env_htab
                0x0000000008058164       0x10 common/built-in.o
                0x0000000008058164                env_htab
 .data.av_      0x0000000008058174      0x408 common/built-in.o
 .data.sbrk_base
                0x000000000805857c        0x4 common/built-in.o
 .data.trim_threshold
                0x0000000008058580        0x4 common/built-in.o
 .data.load_addr
                0x0000000008058584        0x4 common/built-in.o
                0x0000000008058584                load_addr
 .data.system_guid
                0x0000000008058588       0x10 disk/built-in.o
 .data.video_logo_height
                0x0000000008058598        0x4 drivers/built-in.o
 .data.bmp_logo_bitmap
                0x000000000805859c     0x3c00 drivers/built-in.o
                0x000000000805859c                bmp_logo_bitmap
 .data.nl.7596  0x000000000805c19c        0x4 drivers/built-in.o
 .data.video_fontdata
                0x000000000805c1a0     0x1000 drivers/built-in.o
 .data.bmp_logo_palette
                0x000000000805d1a0       0x3e drivers/built-in.o
                0x000000000805d1a0                bmp_logo_palette
 *fill*         0x000000000805d1de        0x2 
 .data.cur_lcdic
                0x000000000805d1e0        0x8 drivers/built-in.o
 .data.lcd_ops  0x000000000805d1e8        0xc drivers/built-in.o
 .data.port_types
                0x000000000805d1f4       0x20 drivers/built-in.o
                0x000000000805d1f4                port_types
 .data.bl_power
                0x000000000805d214        0x1 drivers/built-in.o
 *fill*         0x000000000805d215        0x3 
 .data.dsi_ops  0x000000000805d218        0xc drivers/built-in.o
 .data.sink_info
                0x000000000805d224       0x58 drivers/built-in.o
                0x000000000805d224                sink_info
 .data.hdmi_ops
                0x000000000805d27c        0xc drivers/built-in.o
 .data.audio_parameters
                0x000000000805d288       0xa0 drivers/built-in.o
                0x000000000805d288                audio_parameters
 .data.video_parameters
                0x000000000805d328      0x1c0 drivers/built-in.o
                0x000000000805d328                video_parameters
 .data.CVBS_SETTING_MODE_PATH
                0x000000000805d4e8        0x4 drivers/built-in.o
                0x000000000805d4e8                CVBS_SETTING_MODE_PATH
 .data.cvbs_ops
                0x000000000805d4ec        0xc drivers/built-in.o
                0x000000000805d4ec                cvbs_ops
 .data.adckey   0x000000000805d4f8       0x58 drivers/built-in.o
 .data.owl_gpiochip_ops
                0x000000000805d550       0x10 drivers/gpio/built-in.o
                0x000000000805d550                owl_gpiochip_ops
 .data          0x000000000805d560       0x24 drivers/i2c/built-in.o
 .data.g_current_bus
                0x000000000805d584        0x4 drivers/i2c/built-in.o
 .data.cur_dev_num
                0x000000000805d588        0x4 drivers/mmc/built-in.o
 .data.owl_uboot_serial_drv
                0x000000000805d58c       0x30 drivers/serial/built-in.o
 .data.owl_uart_ports
                0x000000000805d5bc      0x480 drivers/serial/built-in.o
 .data.act_dwc3
                0x000000000805da3c      0x194 drivers/usb/gadget/built-in.o
 .data.dwc3_gadget_ep0_desc
                0x000000000805dbd0        0x9 drivers/usb/gadget/built-in.o
 .data.device_desc
                0x000000000805dbd9       0x12 drivers/usb/gadget/built-in.o
 *fill*         0x000000000805dbeb        0x1 
 .data.g_dnl_string_tab
                0x000000000805dbec        0x8 drivers/usb/gadget/built-in.o
 .data.g_dnl_composite_strings
                0x000000000805dbf4        0x8 drivers/usb/gadget/built-in.o
 .data.g_dnl_driver
                0x000000000805dbfc       0x20 drivers/usb/gadget/built-in.o
 .data.composite_driver
                0x000000000805dc1c       0x1c drivers/usb/gadget/built-in.o
 .data.g_dnl_string_defs
                0x000000000805dc38       0x20 drivers/usb/gadget/built-in.o
 .data.fsg_hs_bulk_out_desc
                0x000000000805dc58        0x9 drivers/usb/gadget/built-in.o
 *fill*         0x000000000805dc61        0x3 
 .data.fsg_stringtab
                0x000000000805dc64        0x8 drivers/usb/gadget/built-in.o
 .data.fsg_intf_desc
                0x000000000805dc6c        0x9 drivers/usb/gadget/built-in.o
 .data.fsg_fs_bulk_in_desc
                0x000000000805dc75        0x9 drivers/usb/gadget/built-in.o
 .data.fsg_fs_bulk_out_desc
                0x000000000805dc7e        0x9 drivers/usb/gadget/built-in.o
 *fill*         0x000000000805dc87        0x1 
 .data.fsg_strings_array
                0x000000000805dc88        0x8 drivers/usb/gadget/built-in.o
 .data.fsg_hs_function
                0x000000000805dc90       0x10 drivers/usb/gadget/built-in.o
 .data.fsg_strings
                0x000000000805dca0       0x10 drivers/usb/gadget/built-in.o
 .data.fsg_hs_bulk_in_desc
                0x000000000805dcb0        0x9 drivers/usb/gadget/built-in.o
 *fill*         0x000000000805dcb9        0x3 
 .data.fsg_fs_function
                0x000000000805dcbc       0x10 drivers/usb/gadget/built-in.o
 .data.fastboot_string_defs
                0x000000000805dccc       0x10 drivers/usb/gadget/built-in.o
 .data.fb_runtime_descs
                0x000000000805dcdc       0x10 drivers/usb/gadget/built-in.o
 .data.fastboot_strings
                0x000000000805dcec        0x8 drivers/usb/gadget/built-in.o
 .data.hs_ep_out
                0x000000000805dcf4        0x9 drivers/usb/gadget/built-in.o
 .data.fs_ep_out
                0x000000000805dcfd        0x9 drivers/usb/gadget/built-in.o
 .data.fs_ep_in
                0x000000000805dd06        0x9 drivers/usb/gadget/built-in.o
 *fill*         0x000000000805dd0f        0x1 
 .data.stringtab_fastboot
                0x000000000805dd10        0x8 drivers/usb/gadget/built-in.o
 .data.interface_desc
                0x000000000805dd18        0x9 drivers/usb/gadget/built-in.o
 .data.descriptor
                0x000000000805dd21       0x3e drivers/usb/host/built-in.o
 *fill*         0x000000000805dd5f        0x1 
 .data.fstypes  0x000000000805dd60       0x84 fs/built-in.o
 .data.ext4fs_indir3_blkno
                0x000000000805dde4        0x4 fs/built-in.o
                0x000000000805dde4                ext4fs_indir3_blkno
 .data.ext4fs_indir1_blkno
                0x000000000805dde8        0x4 fs/built-in.o
                0x000000000805dde8                ext4fs_indir1_blkno
 .data.ext4fs_indir2_blkno
                0x000000000805ddec        0x4 fs/built-in.o
                0x000000000805ddec                ext4fs_indir2_blkno
 .data.sha256_padding
                0x000000000805ddf0       0x40 lib/built-in.o
 .data.NetOurNativeVLAN
                0x000000000805de30        0x2 net/built-in.o
                0x000000000805de30                NetOurNativeVLAN
 .data.NetBcastAddr
                0x000000000805de32        0x6 net/built-in.o
                0x000000000805de32                NetBcastAddr
 .data.NetOurVLAN
                0x000000000805de38        0x2 net/built-in.o
                0x000000000805de38                NetOurVLAN
 *fill*         0x000000000805de3a        0x2 
 .data.first_call.7840
                0x000000000805de3c        0x4 net/built-in.o
 .data.TftpTimeoutCountMax
                0x000000000805de40        0x4 net/built-in.o
 .data.TftpRRQTimeoutCountMax
                0x000000000805de44        0x4 net/built-in.o
                0x000000000805de44                TftpRRQTimeoutCountMax
 .data.TftpBlkSizeOption
                0x000000000805de48        0x2 net/built-in.o
 *fill*         0x000000000805de4a        0x2 
 .data.TftpTimeoutMSecs
                0x000000000805de4c        0x4 net/built-in.o
 .data.TftpBlkSize
                0x000000000805de50        0x2 net/built-in.o

.got            0x000000000805de54        0x0
 .got           0x000000000805de54        0x0 arch/arm/cpu/armv7/start.o

.got.plt        0x000000000805de54        0xc
 .got.plt       0x000000000805de54        0xc arch/arm/cpu/armv7/start.o
                0x000000000805de54                _GLOBAL_OFFSET_TABLE_

.igot.plt       0x000000000805de60        0x0
 .igot.plt      0x000000000805de60        0x0 arch/arm/cpu/armv7/start.o
                0x000000000805de60                . = ALIGN (0x4)
                0x000000000805de60                . = .
                0x000000000805de60                . = ALIGN (0x4)

.u_boot_list    0x000000000805de60      0x580
 *(SORT(.u_boot_list*))
 .u_boot_list_2_cmd_1
                0x000000000805de60        0x0 common/built-in.o
 .u_boot_list_2_cmd_2_base
                0x000000000805de60       0x18 common/built-in.o
                0x000000000805de60                _u_boot_list_2_cmd_2_base
 .u_boot_list_2_cmd_2_booti
                0x000000000805de78       0x18 common/built-in.o
                0x000000000805de78                _u_boot_list_2_cmd_2_booti
 .u_boot_list_2_cmd_2_bootm
                0x000000000805de90       0x18 common/built-in.o
                0x000000000805de90                _u_boot_list_2_cmd_2_bootm
 .u_boot_list_2_cmd_2_bootp
                0x000000000805dea8       0x18 common/built-in.o
                0x000000000805dea8                _u_boot_list_2_cmd_2_bootp
 .u_boot_list_2_cmd_2_bootz
                0x000000000805dec0       0x18 common/built-in.o
                0x000000000805dec0                _u_boot_list_2_cmd_2_bootz
 .u_boot_list_2_cmd_2_clrlogo
                0x000000000805ded8       0x18 drivers/built-in.o
                0x000000000805ded8                _u_boot_list_2_cmd_2_clrlogo
 .u_boot_list_2_cmd_2_cmp
                0x000000000805def0       0x18 common/built-in.o
                0x000000000805def0                _u_boot_list_2_cmd_2_cmp
 .u_boot_list_2_cmd_2_cp
                0x000000000805df08       0x18 common/built-in.o
                0x000000000805df08                _u_boot_list_2_cmd_2_cp
 .u_boot_list_2_cmd_2_crc32
                0x000000000805df20       0x18 common/built-in.o
                0x000000000805df20                _u_boot_list_2_cmd_2_crc32
 .u_boot_list_2_cmd_2_echo
                0x000000000805df38       0x18 common/built-in.o
                0x000000000805df38                _u_boot_list_2_cmd_2_echo
 .u_boot_list_2_cmd_2_env
                0x000000000805df50       0x18 common/built-in.o
                0x000000000805df50                _u_boot_list_2_cmd_2_env
 .u_boot_list_2_cmd_2_exit
                0x000000000805df68       0x18 common/built-in.o
                0x000000000805df68                _u_boot_list_2_cmd_2_exit
 .u_boot_list_2_cmd_2_ext2load
                0x000000000805df80       0x18 common/built-in.o
                0x000000000805df80                _u_boot_list_2_cmd_2_ext2load
 .u_boot_list_2_cmd_2_ext2ls
                0x000000000805df98       0x18 common/built-in.o
                0x000000000805df98                _u_boot_list_2_cmd_2_ext2ls
 .u_boot_list_2_cmd_2_ext4load
                0x000000000805dfb0       0x18 common/built-in.o
                0x000000000805dfb0                _u_boot_list_2_cmd_2_ext4load
 .u_boot_list_2_cmd_2_ext4ls
                0x000000000805dfc8       0x18 common/built-in.o
                0x000000000805dfc8                _u_boot_list_2_cmd_2_ext4ls
 .u_boot_list_2_cmd_2_ext4size
                0x000000000805dfe0       0x18 common/built-in.o
                0x000000000805dfe0                _u_boot_list_2_cmd_2_ext4size
 .u_boot_list_2_cmd_2_false
                0x000000000805dff8       0x18 common/built-in.o
                0x000000000805dff8                _u_boot_list_2_cmd_2_false
 .u_boot_list_2_cmd_2_fastboot
                0x000000000805e010       0x18 common/built-in.o
                0x000000000805e010                _u_boot_list_2_cmd_2_fastboot
 .u_boot_list_2_cmd_2_fatinfo
                0x000000000805e028       0x18 common/built-in.o
                0x000000000805e028                _u_boot_list_2_cmd_2_fatinfo
 .u_boot_list_2_cmd_2_fatload
                0x000000000805e040       0x18 common/built-in.o
                0x000000000805e040                _u_boot_list_2_cmd_2_fatload
 .u_boot_list_2_cmd_2_fatls
                0x000000000805e058       0x18 common/built-in.o
                0x000000000805e058                _u_boot_list_2_cmd_2_fatls
 .u_boot_list_2_cmd_2_fatsize
                0x000000000805e070       0x18 common/built-in.o
                0x000000000805e070                _u_boot_list_2_cmd_2_fatsize
 .u_boot_list_2_cmd_2_fatwrite
                0x000000000805e088       0x18 common/built-in.o
                0x000000000805e088                _u_boot_list_2_cmd_2_fatwrite
 .u_boot_list_2_cmd_2_fdt
                0x000000000805e0a0       0x18 common/built-in.o
                0x000000000805e0a0                _u_boot_list_2_cmd_2_fdt
 .u_boot_list_2_cmd_2_fstype
                0x000000000805e0b8       0x18 common/built-in.o
                0x000000000805e0b8                _u_boot_list_2_cmd_2_fstype
 .u_boot_list_2_cmd_2_go
                0x000000000805e0d0       0x18 common/built-in.o
                0x000000000805e0d0                _u_boot_list_2_cmd_2_go
 .u_boot_list_2_cmd_2_help
                0x000000000805e0e8       0x18 common/built-in.o
                0x000000000805e0e8                _u_boot_list_2_cmd_2_help
 .u_boot_list_2_cmd_2_load
                0x000000000805e100       0x18 common/built-in.o
                0x000000000805e100                _u_boot_list_2_cmd_2_load
 .u_boot_list_2_cmd_2_loop
                0x000000000805e118       0x18 common/built-in.o
                0x000000000805e118                _u_boot_list_2_cmd_2_loop
 .u_boot_list_2_cmd_2_ls
                0x000000000805e130       0x18 common/built-in.o
                0x000000000805e130                _u_boot_list_2_cmd_2_ls
 .u_boot_list_2_cmd_2_md
                0x000000000805e148       0x18 common/built-in.o
                0x000000000805e148                _u_boot_list_2_cmd_2_md
 .u_boot_list_2_cmd_2_mm
                0x000000000805e160       0x18 common/built-in.o
                0x000000000805e160                _u_boot_list_2_cmd_2_mm
 .u_boot_list_2_cmd_2_mmc
                0x000000000805e178       0x18 common/built-in.o
                0x000000000805e178                _u_boot_list_2_cmd_2_mmc
 .u_boot_list_2_cmd_2_mmcinfo
                0x000000000805e190       0x18 common/built-in.o
                0x000000000805e190                _u_boot_list_2_cmd_2_mmcinfo
 .u_boot_list_2_cmd_2_mw
                0x000000000805e1a8       0x18 common/built-in.o
                0x000000000805e1a8                _u_boot_list_2_cmd_2_mw
 .u_boot_list_2_cmd_2_nm
                0x000000000805e1c0       0x18 common/built-in.o
                0x000000000805e1c0                _u_boot_list_2_cmd_2_nm
 .u_boot_list_2_cmd_2_ping
                0x000000000805e1d8       0x18 common/built-in.o
                0x000000000805e1d8                _u_boot_list_2_cmd_2_ping
 .u_boot_list_2_cmd_2_printenv
                0x000000000805e1f0       0x18 common/built-in.o
                0x000000000805e1f0                _u_boot_list_2_cmd_2_printenv
 .u_boot_list_2_cmd_2_question_mark
                0x000000000805e208       0x18 common/built-in.o
                0x000000000805e208                _u_boot_list_2_cmd_2_question_mark
 .u_boot_list_2_cmd_2_reset
                0x000000000805e220       0x18 common/built-in.o
                0x000000000805e220                _u_boot_list_2_cmd_2_reset
 .u_boot_list_2_cmd_2_run
                0x000000000805e238       0x18 common/built-in.o
                0x000000000805e238                _u_boot_list_2_cmd_2_run
 .u_boot_list_2_cmd_2_save
                0x000000000805e250       0x18 common/built-in.o
                0x000000000805e250                _u_boot_list_2_cmd_2_save
 .u_boot_list_2_cmd_2_saveenv
                0x000000000805e268       0x18 common/built-in.o
                0x000000000805e268                _u_boot_list_2_cmd_2_saveenv
 .u_boot_list_2_cmd_2_setenv
                0x000000000805e280       0x18 common/built-in.o
                0x000000000805e280                _u_boot_list_2_cmd_2_setenv
 .u_boot_list_2_cmd_2_showvar
                0x000000000805e298       0x18 common/built-in.o
                0x000000000805e298                _u_boot_list_2_cmd_2_showvar
 .u_boot_list_2_cmd_2_size
                0x000000000805e2b0       0x18 common/built-in.o
                0x000000000805e2b0                _u_boot_list_2_cmd_2_size
 .u_boot_list_2_cmd_2_source
                0x000000000805e2c8       0x18 common/built-in.o
                0x000000000805e2c8                _u_boot_list_2_cmd_2_source
 .u_boot_list_2_cmd_2_test
                0x000000000805e2e0       0x18 common/built-in.o
                0x000000000805e2e0                _u_boot_list_2_cmd_2_test
 .u_boot_list_2_cmd_2_tftpboot
                0x000000000805e2f8       0x18 common/built-in.o
                0x000000000805e2f8                _u_boot_list_2_cmd_2_tftpboot
 .u_boot_list_2_cmd_2_true
                0x000000000805e310       0x18 common/built-in.o
                0x000000000805e310                _u_boot_list_2_cmd_2_true
 .u_boot_list_2_cmd_2_ums
                0x000000000805e328       0x18 common/built-in.o
                0x000000000805e328                _u_boot_list_2_cmd_2_ums
 .u_boot_list_2_cmd_2_usb
                0x000000000805e340       0x18 common/built-in.o
                0x000000000805e340                _u_boot_list_2_cmd_2_usb
 .u_boot_list_2_cmd_2_usbboot
                0x000000000805e358       0x18 common/built-in.o
                0x000000000805e358                _u_boot_list_2_cmd_2_usbboot
 .u_boot_list_2_cmd_2_usbnet
                0x000000000805e370       0x18 common/built-in.o
                0x000000000805e370                _u_boot_list_2_cmd_2_usbnet
 .u_boot_list_2_cmd_2_version
                0x000000000805e388       0x18 common/built-in.o
                0x000000000805e388                _u_boot_list_2_cmd_2_version
 .u_boot_list_2_cmd_3
                0x000000000805e3a0        0x0 common/built-in.o
 .u_boot_list_2_env_clbk_1
                0x000000000805e3a0        0x0 common/built-in.o
 .u_boot_list_2_env_clbk_2_baudrate
                0x000000000805e3a0        0x8 drivers/serial/built-in.o
                0x000000000805e3a0                _u_boot_list_2_env_clbk_2_baudrate
 .u_boot_list_2_env_clbk_2_bootfile
                0x000000000805e3a8        0x8 net/built-in.o
                0x000000000805e3a8                _u_boot_list_2_env_clbk_2_bootfile
 .u_boot_list_2_env_clbk_2_callbacks
                0x000000000805e3b0        0x8 common/built-in.o
                0x000000000805e3b0                _u_boot_list_2_env_clbk_2_callbacks
 .u_boot_list_2_env_clbk_2_console
                0x000000000805e3b8        0x8 common/built-in.o
                0x000000000805e3b8                _u_boot_list_2_env_clbk_2_console
 .u_boot_list_2_env_clbk_2_flags
                0x000000000805e3c0        0x8 common/built-in.o
                0x000000000805e3c0                _u_boot_list_2_env_clbk_2_flags
 .u_boot_list_2_env_clbk_2_loadaddr
                0x000000000805e3c8        0x8 common/built-in.o
                0x000000000805e3c8                _u_boot_list_2_env_clbk_2_loadaddr
 .u_boot_list_2_env_clbk_3
                0x000000000805e3d0        0x0 common/built-in.o
 .u_boot_list_2_g_dnl_bind_callbacks_1
                0x000000000805e3d0        0x0 drivers/usb/gadget/built-in.o
 .u_boot_list_2_g_dnl_bind_callbacks_2___usb_function_name_usb_dnl_fastboot
                0x000000000805e3d0        0x8 drivers/usb/gadget/built-in.o
                0x000000000805e3d0                _u_boot_list_2_g_dnl_bind_callbacks_2___usb_function_name_usb_dnl_fastboot
 .u_boot_list_2_g_dnl_bind_callbacks_2___usb_function_name_usb_dnl_ums
                0x000000000805e3d8        0x8 drivers/usb/gadget/built-in.o
                0x000000000805e3d8                _u_boot_list_2_g_dnl_bind_callbacks_2___usb_function_name_usb_dnl_ums
 .u_boot_list_2_g_dnl_bind_callbacks_3
                0x000000000805e3e0        0x0 drivers/usb/gadget/built-in.o
                0x000000000805e3e0                . = ALIGN (0x4)

.image_copy_end
                0x000000000805e3e0        0x0
 *(.__image_copy_end)
 .__image_copy_end
                0x000000000805e3e0        0x0 arch/arm/lib/built-in.o

.rel_dyn_start  0x000000000805e3e0        0x0
 *(.__rel_dyn_start)
 .__rel_dyn_start
                0x000000000805e3e0        0x0 arch/arm/lib/built-in.o

.rel.dyn        0x000000000805e3e0     0xa860
 *(.rel*)
 .rel.got       0x000000000805e3e0        0x0 arch/arm/cpu/armv7/start.o
 .rel.plt       0x000000000805e3e0        0x0 arch/arm/cpu/armv7/start.o
 .rel.iplt      0x000000000805e3e0        0x0 arch/arm/cpu/armv7/start.o
 .rel.text      0x000000000805e3e0       0x20 arch/arm/cpu/armv7/start.o
 .rel.text.invalidate_dcache_range
                0x000000000805e400       0x18 arch/arm/cpu/armv7/start.o
 .rel.text._atc2603a_reg_read
                0x000000000805e418        0x8 arch/arm/cpu/armv7/start.o
 .rel.text._atc2603a_reg_write
                0x000000000805e420        0x8 arch/arm/cpu/armv7/start.o
 .rel.text.atc260x_get_version
                0x000000000805e428        0x8 arch/arm/cpu/armv7/start.o
 .rel.text.pmu_early_init
                0x000000000805e430       0x18 arch/arm/cpu/armv7/start.o
 .rel.text.pmu_init
                0x000000000805e448      0x178 arch/arm/cpu/armv7/start.o
 .rel.text.atc260x_pstore_set
                0x000000000805e5c0       0x18 arch/arm/cpu/armv7/start.o
 .rel.text.atc260x_pstore_get
                0x000000000805e5d8       0x10 arch/arm/cpu/armv7/start.o
 .rel.text.reset_cpu
                0x000000000805e5e8        0x8 arch/arm/cpu/armv7/start.o
 .rel.text.default_isr
                0x000000000805e5f0        0x8 arch/arm/cpu/armv7/start.o
 .rel.text.do_irq
                0x000000000805e5f8        0x8 arch/arm/cpu/armv7/start.o
 .rel.text.irq_install_handler
                0x000000000805e600       0x20 arch/arm/cpu/armv7/start.o
 .rel.text.irq_free_handler
                0x000000000805e620        0x0 arch/arm/cpu/armv7/start.o
 .rel.text.arch_interrupt_init
                0x000000000805e620        0x8 arch/arm/cpu/armv7/start.o
 .rel.text.find_pinctrl_dev_by_name
                0x000000000805e628        0x0 arch/arm/cpu/armv7/start.o
 .rel.text.owl_fdtdec_set_pinctrl
                0x000000000805e628       0x30 arch/arm/cpu/armv7/start.o
 .rel.text.owl_device_fdtdec_set_pinctrl_default
                0x000000000805e658        0x8 arch/arm/cpu/armv7/start.o
 .rel.text.pinctrl_init_f
                0x000000000805e660        0x0 arch/arm/cpu/armv7/start.o
 .rel.text.pinctrl_init_r
                0x000000000805e660       0x48 arch/arm/cpu/armv7/start.o
 .rel.text.pwm_enable
                0x000000000805e6a8        0x8 arch/arm/cpu/armv7/start.o
 .rel.text.pwm_disable
                0x000000000805e6b0        0x8 arch/arm/cpu/armv7/start.o
 .rel.text.pwm_config
                0x000000000805e6b8        0x8 arch/arm/cpu/armv7/start.o
 .rel.text.fdtdec_pwm_get
                0x000000000805e6c0       0x48 arch/arm/cpu/armv7/start.o
 .rel.text.pwm_init
                0x000000000805e708       0x18 arch/arm/cpu/armv7/start.o
 .rel.text.owl_clk_init
                0x000000000805e720       0x50 arch/arm/cpu/armv7/start.o
 .rel.rodata.pwm3_groups
                0x000000000805e770       0x18 arch/arm/cpu/armv7/start.o
 .rel.rodata.atm7059_groups
                0x000000000805e788      0x8c0 arch/arm/cpu/armv7/start.o
 .rel.rodata.uart5_groups
                0x000000000805f048       0x40 arch/arm/cpu/armv7/start.o
 .rel.rodata.sens0_groups
                0x000000000805f088       0x20 arch/arm/cpu/armv7/start.o
 .rel.rodata.spi2_groups
                0x000000000805f0a8       0x28 arch/arm/cpu/armv7/start.o
 .rel.rodata.nor_groups
                0x000000000805f0d0       0xc8 arch/arm/cpu/armv7/start.o
 .rel.rodata.spdif_groups
                0x000000000805f198        0x8 arch/arm/cpu/armv7/start.o
 .rel.rodata.lvds_groups
                0x000000000805f1a0       0x18 arch/arm/cpu/armv7/start.o
 .rel.rodata.pcm1_groups
                0x000000000805f1b8       0x40 arch/arm/cpu/armv7/start.o
 .rel.rodata.sens1_groups
                0x000000000805f1f8       0x68 arch/arm/cpu/armv7/start.o
 .rel.rodata.p0_groups
                0x000000000805f260       0x10 arch/arm/cpu/armv7/start.o
 .rel.rodata.sd0_groups
                0x000000000805f270       0x60 arch/arm/cpu/armv7/start.o
 .rel.rodata.atm7059_pads
                0x000000000805f2d0      0x508 arch/arm/cpu/armv7/start.o
 .rel.rodata.clko_25m_groups
                0x000000000805f7d8        0x8 arch/arm/cpu/armv7/start.o
 .rel.rodata.uart0_groups
                0x000000000805f7e0       0x20 arch/arm/cpu/armv7/start.o
 .rel.rodata.sirq1_groups
                0x000000000805f800        0x8 arch/arm/cpu/armv7/start.o
 .rel.rodata.jtag_groups
                0x000000000805f808       0x48 arch/arm/cpu/armv7/start.o
 .rel.rodata.pwm2_groups
                0x000000000805f850       0x20 arch/arm/cpu/armv7/start.o
 .rel.rodata.i2s1_groups
                0x000000000805f870       0x30 arch/arm/cpu/armv7/start.o
 .rel.rodata.i2c3_groups
                0x000000000805f8a0       0x18 arch/arm/cpu/armv7/start.o
 .rel.rodata.spi3_groups
                0x000000000805f8b8       0x20 arch/arm/cpu/armv7/start.o
 .rel.rodata.spi0_groups
                0x000000000805f8d8       0x30 arch/arm/cpu/armv7/start.o
 .rel.rodata.pwm5_groups
                0x000000000805f908       0x20 arch/arm/cpu/armv7/start.o
 .rel.rodata.mipi_csi_groups
                0x000000000805f928       0x10 arch/arm/cpu/armv7/start.o
 .rel.rodata.eth_smii_groups
                0x000000000805f938       0x28 arch/arm/cpu/armv7/start.o
 .rel.rodata.uart2_groups
                0x000000000805f960       0x88 arch/arm/cpu/armv7/start.o
 .rel.rodata.nand_groups
                0x000000000805f9e8       0x28 arch/arm/cpu/armv7/start.o
 .rel.rodata.sirq0_groups
                0x000000000805fa10        0x8 arch/arm/cpu/armv7/start.o
 .rel.rodata.dsi_groups
                0x000000000805fa18       0x38 arch/arm/cpu/armv7/start.o
 .rel.rodata.ks_groups
                0x000000000805fa50       0x38 arch/arm/cpu/armv7/start.o
 .rel.rodata.sd2_groups
                0x000000000805fa88        0x8 arch/arm/cpu/armv7/start.o
 .rel.rodata.i2c2_groups
                0x000000000805fa90        0x8 arch/arm/cpu/armv7/start.o
 .rel.rodata.spi1_groups
                0x000000000805fa98       0x18 arch/arm/cpu/armv7/start.o
 .rel.rodata.usb30_groups
                0x000000000805fab0        0x8 arch/arm/cpu/armv7/start.o
 .rel.rodata.i2s0_groups
                0x000000000805fab8       0x18 arch/arm/cpu/armv7/start.o
 .rel.rodata.lcd0_groups
                0x000000000805fad0       0x40 arch/arm/cpu/armv7/start.o
 .rel.rodata.pwm4_groups
                0x000000000805fb10       0x30 arch/arm/cpu/armv7/start.o
 .rel.rodata.uart6_groups
                0x000000000805fb40       0x20 arch/arm/cpu/armv7/start.o
 .rel.rodata.uart3_groups
                0x000000000805fb60       0x18 arch/arm/cpu/armv7/start.o
 .rel.rodata.eth_rmii_groups
                0x000000000805fb78       0x48 arch/arm/cpu/armv7/start.o
 .rel.rodata.pcm0_groups
                0x000000000805fbc0       0x20 arch/arm/cpu/armv7/start.o
 .rel.rodata.pwm1_groups
                0x000000000805fbe0       0x20 arch/arm/cpu/armv7/start.o
 .rel.rodata.atm7059_functions
                0x000000000805fc00      0x300 arch/arm/cpu/armv7/start.o
 .rel.rodata.i2c0_groups
                0x000000000805ff00       0x18 arch/arm/cpu/armv7/start.o
 .rel.rodata.pwm0_groups
                0x000000000805ff18       0x20 arch/arm/cpu/armv7/start.o
 .rel.rodata.sd1_groups
                0x000000000805ff38       0x48 arch/arm/cpu/armv7/start.o
 .rel.rodata.i2c1_groups
                0x000000000805ff80       0x10 arch/arm/cpu/armv7/start.o
 .rel.rodata.ts_groups
                0x000000000805ff90       0x10 arch/arm/cpu/armv7/start.o
 .rel.rodata.uart1_groups
                0x000000000805ffa0       0x10 arch/arm/cpu/armv7/start.o
 .rel.rodata.sirq2_groups
                0x000000000805ffb0        0x8 arch/arm/cpu/armv7/start.o
 .rel.rodata.uart4_groups
                0x000000000805ffb8       0x20 arch/arm/cpu/armv7/start.o
 .rel.data.P_ETH_TXD0_schimmt_conf
                0x000000000805ffd8        0x8 arch/arm/cpu/armv7/start.o
 .rel.data.P_DSI_DP2_schimmt_conf
                0x000000000805ffe0        0x8 arch/arm/cpu/armv7/start.o
 .rel.data.P_DSI_DN0_schimmt_conf
                0x000000000805ffe8        0x8 arch/arm/cpu/armv7/start.o
 .rel.data.P_I2S_MCLK1_schimmt_conf
                0x000000000805fff0        0x8 arch/arm/cpu/armv7/start.o
 .rel.data.P_I2C2_SCLK_schimmt_conf
                0x000000000805fff8        0x8 arch/arm/cpu/armv7/start.o
 .rel.data.P_I2C2_SDATA_schimmt_conf
                0x0000000008060000        0x8 arch/arm/cpu/armv7/start.o
 .rel.data.P_I2S_LRCLK0_schimmt_conf
                0x0000000008060008        0x8 arch/arm/cpu/armv7/start.o
 .rel.data.P_PCM1_SYNC_schimmt_conf
                0x0000000008060010        0x8 arch/arm/cpu/armv7/start.o
 .rel.data.P_I2S_MCLK0_schimmt_conf
                0x0000000008060018        0x8 arch/arm/cpu/armv7/start.o
 .rel.data.P_UART3_RX_schimmt_conf
                0x0000000008060020        0x8 arch/arm/cpu/armv7/start.o
 .rel.data.P_UART0_RX_schimmt_conf
                0x0000000008060028        0x8 arch/arm/cpu/armv7/start.o
 .rel.data.P_ETH_TXEN_schimmt_conf
                0x0000000008060030        0x8 arch/arm/cpu/armv7/start.o
 .rel.data.P_SD0_CLK_schimmt_conf
                0x0000000008060038        0x8 arch/arm/cpu/armv7/start.o
 .rel.data.P_I2S_LRCLK1_schimmt_conf
                0x0000000008060040        0x8 arch/arm/cpu/armv7/start.o
 .rel.data.P_DSI_DP0_schimmt_conf
                0x0000000008060048        0x8 arch/arm/cpu/armv7/start.o
 .rel.data.P_SPI0_MOSI_schimmt_conf
                0x0000000008060050        0x8 arch/arm/cpu/armv7/start.o
 .rel.data.P_SPI0_MISO_schimmt_conf
                0x0000000008060058        0x8 arch/arm/cpu/armv7/start.o
 .rel.data.P_SPI0_SS_schimmt_conf
                0x0000000008060060        0x8 arch/arm/cpu/armv7/start.o
 .rel.data.P_SPI0_SCLK_schimmt_conf
                0x0000000008060068        0x8 arch/arm/cpu/armv7/start.o
 .rel.data.P_I2C0_SDATA_schimmt_conf
                0x0000000008060070        0x8 arch/arm/cpu/armv7/start.o
 .rel.data.P_KS_IN0_schimmt_conf
                0x0000000008060078        0x8 arch/arm/cpu/armv7/start.o
 .rel.data.P_ETH_CRS_DV_schimmt_conf
                0x0000000008060080        0x8 arch/arm/cpu/armv7/start.o
 .rel.data.P_ETH_RXD1_schimmt_conf
                0x0000000008060088        0x8 arch/arm/cpu/armv7/start.o
 .rel.data.P_KS_OUT2_schimmt_conf
                0x0000000008060090        0x8 arch/arm/cpu/armv7/start.o
 .rel.data.P_UART2_RX_schimmt_conf
                0x0000000008060098        0x8 arch/arm/cpu/armv7/start.o
 .rel.data.P_PCM1_IN_schimmt_conf
                0x00000000080600a0        0x8 arch/arm/cpu/armv7/start.o
 .rel.data.P_UART3_CTSB_schimmt_conf
                0x00000000080600a8        0x8 arch/arm/cpu/armv7/start.o
 .rel.data.P_PCM1_CLK_schimmt_conf
                0x00000000080600b0        0x8 arch/arm/cpu/armv7/start.o
 .rel.data.P_KS_OUT0_schimmt_conf
                0x00000000080600b8        0x8 arch/arm/cpu/armv7/start.o
 .rel.data.P_UART3_RTSB_schimmt_conf
                0x00000000080600c0        0x8 arch/arm/cpu/armv7/start.o
 .rel.data.P_UART2_CTSB_schimmt_conf
                0x00000000080600c8        0x8 arch/arm/cpu/armv7/start.o
 .rel.data.P_I2C0_SCLK_schimmt_conf
                0x00000000080600d0        0x8 arch/arm/cpu/armv7/start.o
 .rel.data.P_I2S_BCLK0_schimmt_conf
                0x00000000080600d8        0x8 arch/arm/cpu/armv7/start.o
 .rel.data.P_KS_OUT1_schimmt_conf
                0x00000000080600e0        0x8 arch/arm/cpu/armv7/start.o
 .rel.data.P_ETH_RXER_schimmt_conf
                0x00000000080600e8        0x8 arch/arm/cpu/armv7/start.o
 .rel.data.P_ETH_TXD1_schimmt_conf
                0x00000000080600f0        0x8 arch/arm/cpu/armv7/start.o
 .rel.data.P_ETH_REF_CLK_schimmt_conf
                0x00000000080600f8        0x8 arch/arm/cpu/armv7/start.o
 .rel.data.P_DSI_DN2_schimmt_conf
                0x0000000008060100        0x8 arch/arm/cpu/armv7/start.o
 .rel.data.P_UART2_RTSB_schimmt_conf
                0x0000000008060108        0x8 arch/arm/cpu/armv7/start.o
 .rel.data.P_I2C1_SDATA_schimmt_conf
                0x0000000008060110        0x8 arch/arm/cpu/armv7/start.o
 .rel.data.atm7059_pad_tab
                0x0000000008060118      0x2b8 arch/arm/cpu/armv7/start.o
 .rel.data.P_I2C1_SCLK_schimmt_conf
                0x00000000080603d0        0x8 arch/arm/cpu/armv7/start.o
 .rel.data.P_ETH_RXD0_schimmt_conf
                0x00000000080603d8        0x8 arch/arm/cpu/armv7/start.o
 .rel.data.P_UART0_TX_schimmt_conf
                0x00000000080603e0        0x8 arch/arm/cpu/armv7/start.o
 .rel.vectors   0x00000000080603e8       0x38 arch/arm/cpu/armv7/start.o
 .rel.text.relocate_vectors
                0x0000000008060420       0x20 arch/arm/cpu/armv7/start.o
 .rel.text.boot_jump_linux
                0x0000000008060440       0x28 arch/arm/cpu/armv7/start.o
 .rel.text.boot_prep_linux
                0x0000000008060468       0x18 arch/arm/cpu/armv7/start.o
 .rel.text.do_bootm_linux
                0x0000000008060480        0x8 arch/arm/cpu/armv7/start.o
 .rel.text.bootz_setup
                0x0000000008060488       0x10 arch/arm/cpu/armv7/start.o
 .rel.text.boot_prep_vxworks
                0x0000000008060498       0x10 arch/arm/cpu/armv7/start.o
 .rel.text.interrupt_init
                0x00000000080604a8       0x18 arch/arm/cpu/armv7/start.o
 .rel.text.bad_mode
                0x00000000080604c0        0x8 arch/arm/cpu/armv7/start.o
 .rel.text.show_regs
                0x00000000080604c8       0x60 arch/arm/cpu/armv7/start.o
 .rel.text.do_undefined_instruction
                0x0000000008060528        0x8 arch/arm/cpu/armv7/start.o
 .rel.text.do_software_interrupt
                0x0000000008060530        0x8 arch/arm/cpu/armv7/start.o
 .rel.text.do_prefetch_abort
                0x0000000008060538        0x8 arch/arm/cpu/armv7/start.o
 .rel.text.do_data_abort
                0x0000000008060540        0x8 arch/arm/cpu/armv7/start.o
 .rel.text.do_not_used
                0x0000000008060548        0x8 arch/arm/cpu/armv7/start.o
 .rel.text.do_fiq
                0x0000000008060550        0x8 arch/arm/cpu/armv7/start.o
 .rel.text.do_reset
                0x0000000008060558        0x8 arch/arm/cpu/armv7/start.o
 .rel.text.enable_caches
                0x0000000008060560        0x0 arch/arm/cpu/armv7/start.o
 .rel.rodata    0x0000000008060560      0x138 arch/arm/cpu/armv7/start.o
 .rel.text.get_boot_dev_num
                0x0000000008060698       0x18 arch/arm/cpu/armv7/start.o
 .rel.text.dram_init
                0x00000000080606b0        0x8 arch/arm/cpu/armv7/start.o
 .rel.text.board_eth_init
                0x00000000080606b8        0x8 arch/arm/cpu/armv7/start.o
 .rel.text.board_mmc_init
                0x00000000080606c0        0x8 arch/arm/cpu/armv7/start.o
 .rel.text.owl_get_boot_mode
                0x00000000080606c8        0x8 arch/arm/cpu/armv7/start.o
 .rel.text.owl_get_boot_dev
                0x00000000080606d0        0x8 arch/arm/cpu/armv7/start.o
 .rel.text.owl_afi_get_serial_number
                0x00000000080606d8        0x8 arch/arm/cpu/armv7/start.o
 .rel.text.owl_afi_get_serial_pad
                0x00000000080606e0        0x8 arch/arm/cpu/armv7/start.o
 .rel.text.owl_afi_get_serial_baudrate
                0x00000000080606e8        0x8 arch/arm/cpu/armv7/start.o
 .rel.text.owl_get_ddr_size
                0x00000000080606f0        0x8 arch/arm/cpu/armv7/start.o
 .rel.text.boot_append_remove_args.constprop.0
                0x00000000080606f8       0x18 arch/arm/cpu/armv7/start.o
 .rel.text.boot_append_bootargs_add
                0x0000000008060710       0x40 arch/arm/cpu/armv7/start.o
 .rel.text.owl_boot_fdt_setup
                0x0000000008060750       0x80 arch/arm/cpu/armv7/start.o
 .rel.text.check_recovery_cmd_file
                0x00000000080607d0       0x48 arch/arm/cpu/armv7/start.o
 .rel.text.setup_recovery_env
                0x0000000008060818       0x20 arch/arm/cpu/armv7/start.o
 .rel.text.check_recovery_mode
                0x0000000008060838       0x58 arch/arm/cpu/armv7/start.o
 .rel.text.platform_get_lcd_par
                0x0000000008060890        0x0 arch/arm/cpu/armv7/start.o
 .rel.text.platform_get_dsi_par
                0x0000000008060890        0x0 arch/arm/cpu/armv7/start.o
 .rel.text.g_dnl_bind_fixup
                0x0000000008060890        0x8 arch/arm/cpu/armv7/start.o
 .rel.text.jumptable_init
                0x0000000008060898       0xa8 arch/arm/cpu/armv7/start.o
 .rel.text.hash_lookup_algo
                0x0000000008060940        0x8 arch/arm/cpu/armv7/start.o
 .rel.text.hash_progressive_lookup_algo
                0x0000000008060948        0x0 arch/arm/cpu/armv7/start.o
 .rel.text.hash_show
                0x0000000008060948       0x10 arch/arm/cpu/armv7/start.o
 .rel.text.hash_command
                0x0000000008060958       0x20 arch/arm/cpu/armv7/start.o
 .rel.text.mapset
                0x0000000008060978        0x8 arch/arm/cpu/armv7/start.o
 .rel.text.syntax_err
                0x0000000008060980        0x8 arch/arm/cpu/armv7/start.o
 .rel.text.xmalloc
                0x0000000008060988        0x8 arch/arm/cpu/armv7/start.o
 .rel.text.xrealloc
                0x0000000008060990        0x8 arch/arm/cpu/armv7/start.o
 .rel.text.done_word
                0x0000000008060998        0x8 arch/arm/cpu/armv7/start.o
 .rel.text.do_showvar
                0x00000000080609a0       0x20 arch/arm/cpu/armv7/start.o
 .rel.text.is_assignment
                0x00000000080609c0        0x8 arch/arm/cpu/armv7/start.o
 .rel.text.file_get
                0x00000000080609c8       0x30 arch/arm/cpu/armv7/start.o
 .rel.text.b_addqchr
                0x00000000080609f8        0x8 arch/arm/cpu/armv7/start.o
 .rel.text.get_local_var
                0x0000000008060a00       0x20 arch/arm/cpu/armv7/start.o
 .rel.text.set_local_var
                0x0000000008060a20       0x20 arch/arm/cpu/armv7/start.o
 .rel.text.insert_var_value_sub
                0x0000000008060a40        0x8 arch/arm/cpu/armv7/start.o
 .rel.text.unset_local_var
                0x0000000008060a48        0x0 arch/arm/cpu/armv7/start.o
 .rel.text.parse_string_outer
                0x0000000008060a48       0x18 arch/arm/cpu/armv7/start.o
 .rel.text.run_list_real
                0x0000000008060a60       0x40 arch/arm/cpu/armv7/start.o
 .rel.text.parse_stream_outer
                0x0000000008060aa0       0x68 arch/arm/cpu/armv7/start.o
 .rel.text.parse_file_outer
                0x0000000008060b08       0x10 arch/arm/cpu/armv7/start.o
 .rel.text.u_boot_hush_start
                0x0000000008060b18       0x18 arch/arm/cpu/armv7/start.o
 .rel.text.bootdelay_process
                0x0000000008060b30       0x38 arch/arm/cpu/armv7/start.o
 .rel.text.autoboot_command
                0x0000000008060b68       0x18 arch/arm/cpu/armv7/start.o
 .rel.text.setup_mon_len
                0x0000000008060b80       0x10 arch/arm/cpu/armv7/start.o
 .rel.text.announce_dram_init
                0x0000000008060b90        0x8 arch/arm/cpu/armv7/start.o
 .rel.text.init_baud_rate
                0x0000000008060b98        0x8 arch/arm/cpu/armv7/start.o
 .rel.text.setup_fdt
                0x0000000008060ba0       0x10 arch/arm/cpu/armv7/start.o
 .rel.text.show_dram_config
                0x0000000008060bb0        0x8 arch/arm/cpu/armv7/start.o
 .rel.text.board_init_f
                0x0000000008060bb8        0x8 arch/arm/cpu/armv7/start.o
 .rel.text.initr_reloc_global_data
                0x0000000008060bc0       0x18 arch/arm/cpu/armv7/start.o
 .rel.text.initr_net
                0x0000000008060bd8        0x8 arch/arm/cpu/armv7/start.o
 .rel.text.initr_ethaddr
                0x0000000008060be0        0x8 arch/arm/cpu/armv7/start.o
 .rel.text.initr_env
                0x0000000008060be8       0x18 arch/arm/cpu/armv7/start.o
 .rel.text.initr_mmc
                0x0000000008060c00        0x8 arch/arm/cpu/armv7/start.o
 .rel.text.check_boot_flag
                0x0000000008060c08       0x70 arch/arm/cpu/armv7/start.o
 .rel.text.board_init_r
                0x0000000008060c78        0x8 arch/arm/cpu/armv7/start.o
 .rel.text.do_go
                0x0000000008060c80       0x10 arch/arm/cpu/armv7/start.o
 .rel.text.do_bootm
                0x0000000008060c90       0x18 arch/arm/cpu/armv7/start.o
 .rel.text.do_booti
                0x0000000008060ca8       0x20 arch/arm/cpu/armv7/start.o
 .rel.text.bootm_maybe_autostart
                0x0000000008060cc8       0x20 arch/arm/cpu/armv7/start.o
 .rel.text.do_bootz
                0x0000000008060ce8       0x10 arch/arm/cpu/armv7/start.o
 .rel.text.bootm_find_ramdisk_fdt
                0x0000000008060cf8       0x18 arch/arm/cpu/armv7/start.o
 .rel.text.bootm_decomp_image
                0x0000000008060d10       0x48 arch/arm/cpu/armv7/start.o
 .rel.text.do_bootm_states
                0x0000000008060d58       0xf0 arch/arm/cpu/armv7/start.o
 .rel.text.do_bootm_rtems
                0x0000000008060e48        0x8 arch/arm/cpu/armv7/start.o
 .rel.text.do_bootm_plan9
                0x0000000008060e50       0x18 arch/arm/cpu/armv7/start.o
 .rel.text.do_bootm_standalone
                0x0000000008060e68       0x18 arch/arm/cpu/armv7/start.o
 .rel.text.do_bootm_netbsd
                0x0000000008060e80       0x18 arch/arm/cpu/armv7/start.o
 .rel.text.do_bootvx_fdt
                0x0000000008060e98       0x38 arch/arm/cpu/armv7/start.o
 .rel.text.bootm_os_get_boot_func
                0x0000000008060ed0        0x8 arch/arm/cpu/armv7/start.o
 .rel.text.do_help
                0x0000000008060ed8       0x10 arch/arm/cpu/armv7/start.o
 .rel.text.do_version
                0x0000000008060ee8       0x20 arch/arm/cpu/armv7/start.o
 .rel.text.env_attr_lookup
                0x0000000008060f08        0x8 arch/arm/cpu/armv7/start.o
 .rel.text.find_env_callback
                0x0000000008060f10       0x10 arch/arm/cpu/armv7/start.o
 .rel.text.on_callbacks
                0x0000000008060f20       0x20 arch/arm/cpu/armv7/start.o
 .rel.text.set_callback
                0x0000000008060f40        0x8 arch/arm/cpu/armv7/start.o
 .rel.text.env_callback_init
                0x0000000008060f48       0x20 arch/arm/cpu/armv7/start.o
 .rel.text.skip_num
                0x0000000008060f68        0x8 arch/arm/cpu/armv7/start.o
 .rel.text.on_flags
                0x0000000008060f70       0x20 arch/arm/cpu/armv7/start.o
 .rel.text.env_flags_parse_vartype
                0x0000000008060f90       0x10 arch/arm/cpu/armv7/start.o
 .rel.text.env_flags_parse_varaccess
                0x0000000008060fa0       0x10 arch/arm/cpu/armv7/start.o
 .rel.text.set_flags
                0x0000000008060fb0       0x10 arch/arm/cpu/armv7/start.o
 .rel.text.env_flags_init
                0x0000000008060fc0       0x30 arch/arm/cpu/armv7/start.o
 .rel.text.env_flags_validate
                0x0000000008060ff0       0x68 arch/arm/cpu/armv7/start.o
 .rel.text.init_mmc_for_env
                0x0000000008061058       0x10 arch/arm/cpu/armv7/start.o
 .rel.text.env_init
                0x0000000008061068        0x8 arch/arm/cpu/armv7/start.o
 .rel.text.saveenv
                0x0000000008061070       0x30 arch/arm/cpu/armv7/start.o
 .rel.text.env_relocate_spec
                0x00000000080610a0       0x20 arch/arm/cpu/armv7/start.o
 .rel.text.source
                0x00000000080610c0       0x68 arch/arm/cpu/armv7/start.o
 .rel.text.do_source
                0x0000000008061128       0x10 arch/arm/cpu/armv7/start.o
 .rel.text.do_echo
                0x0000000008061138        0x8 arch/arm/cpu/armv7/start.o
 .rel.text.do_fat_fsinfo
                0x0000000008061140       0x10 arch/arm/cpu/armv7/start.o
 .rel.text.do_fat_fswrite
                0x0000000008061150       0x18 arch/arm/cpu/armv7/start.o
 .rel.text.fdt_valid
                0x0000000008061168       0x28 arch/arm/cpu/armv7/start.o
 .rel.text.is_printable_string
                0x0000000008061190        0x8 arch/arm/cpu/armv7/start.o
 .rel.text.print_data
                0x0000000008061198       0x58 arch/arm/cpu/armv7/start.o
 .rel.text.set_working_fdt_addr
                0x00000000080611f0       0x10 arch/arm/cpu/armv7/start.o
 .rel.text.do_fdt
                0x0000000008061200      0x248 arch/arm/cpu/armv7/start.o
 .rel.text.of_bus_default_count_cells
                0x0000000008061448        0x0 arch/arm/cpu/armv7/start.o
 .rel.text.fdt_find_or_add_subnode
                0x0000000008061448       0x10 arch/arm/cpu/armv7/start.o
 .rel.text.fdt_initrd
                0x0000000008061458       0x30 arch/arm/cpu/armv7/start.o
 .rel.text.fdt_chosen
                0x0000000008061488       0x20 arch/arm/cpu/armv7/start.o
 .rel.text.do_fixup_by_path
                0x00000000080614a8        0x8 arch/arm/cpu/armv7/start.o
 .rel.text.fdt_fixup_memory_banks
                0x00000000080614b0       0x38 arch/arm/cpu/armv7/start.o
 .rel.text.fdt_fixup_ethernet
                0x00000000080614e8       0x38 arch/arm/cpu/armv7/start.o
 .rel.text.fdt_del_node_and_alias
                0x0000000008061520        0x0 arch/arm/cpu/armv7/start.o
 .rel.text.fdt_translate_address
                0x0000000008061520        0x0 arch/arm/cpu/armv7/start.o
 .rel.text.fdt_node_offset_by_compat_reg
                0x0000000008061520        0x0 arch/arm/cpu/armv7/start.o
 .rel.text.fdt_set_phandle
                0x0000000008061520        0x0 arch/arm/cpu/armv7/start.o
 .rel.text.fdt_create_phandle
                0x0000000008061520        0x0 arch/arm/cpu/armv7/start.o
 .rel.text.fdt_set_node_status
                0x0000000008061520        0x0 arch/arm/cpu/armv7/start.o
 .rel.text.fdt_add_edid
                0x0000000008061520        0x0 arch/arm/cpu/armv7/start.o
 .rel.text.fdt_verify_alias_address
                0x0000000008061520        0x0 arch/arm/cpu/armv7/start.o
 .rel.text.fdt_get_base_address
                0x0000000008061520        0x0 arch/arm/cpu/armv7/start.o
 .rel.text.fdt_read_range
                0x0000000008061520        0x0 arch/arm/cpu/armv7/start.o
 .rel.text.fdt_setup_simplefb_node
                0x0000000008061520        0x0 arch/arm/cpu/armv7/start.o
 .rel.text.do_mem_mw
                0x0000000008061520        0x8 arch/arm/cpu/armv7/start.o
 .rel.text.do_mem_md
                0x0000000008061528       0x20 arch/arm/cpu/armv7/start.o
 .rel.text.do_mem_cmp
                0x0000000008061548       0x38 arch/arm/cpu/armv7/start.o
 .rel.text.do_mem_base
                0x0000000008061580       0x10 arch/arm/cpu/armv7/start.o
 .rel.text.do_mem_cp
                0x0000000008061590       0x10 arch/arm/cpu/armv7/start.o
 .rel.text.do_mem_crc
                0x00000000080615a0        0x8 arch/arm/cpu/armv7/start.o
 .rel.text.mod_mem.isra.2
                0x00000000080615a8       0x48 arch/arm/cpu/armv7/start.o
 .rel.text.do_mmcops
                0x00000000080615f0       0x18 arch/arm/cpu/armv7/start.o
 .rel.text.init_mmc_device
                0x0000000008061608        0x8 arch/arm/cpu/armv7/start.o
 .rel.text.do_mmc_rescan
                0x0000000008061610        0x8 arch/arm/cpu/armv7/start.o
 .rel.text.do_mmc_hwpartition
                0x0000000008061618       0xb0 arch/arm/cpu/armv7/start.o
 .rel.text.do_mmc_dev
                0x00000000080616c8       0x38 arch/arm/cpu/armv7/start.o
 .rel.text.do_mmc_part
                0x0000000008061700       0x10 arch/arm/cpu/armv7/start.o
 .rel.text.do_mmc_erase
                0x0000000008061710       0x30 arch/arm/cpu/armv7/start.o
 .rel.text.do_mmc_write
                0x0000000008061740       0x30 arch/arm/cpu/armv7/start.o
 .rel.text.do_mmc_read
                0x0000000008061770       0x28 arch/arm/cpu/armv7/start.o
 .rel.text.do_mmcinfo
                0x0000000008061798       0xf8 arch/arm/cpu/armv7/start.o
 .rel.text.do_mmc_setdsr
                0x0000000008061890       0x28 arch/arm/cpu/armv7/start.o
 .rel.text.netboot_common
                0x00000000080618b8       0x98 arch/arm/cpu/armv7/start.o
 .rel.text.do_ping
                0x0000000008061950       0x18 arch/arm/cpu/armv7/start.o
 .rel.text.do_test
                0x0000000008061968       0x70 arch/arm/cpu/armv7/start.o
 .rel.text.usb_get_class_desc
                0x00000000080619d8       0x50 arch/arm/cpu/armv7/start.o
 .rel.text.usb_display_class_sub
                0x0000000008061a28       0xc8 arch/arm/cpu/armv7/start.o
 .rel.text.usb_show_tree_graph
                0x0000000008061af0       0x48 arch/arm/cpu/armv7/start.o
 .rel.text.usb_display_string
                0x0000000008061b38        0x8 arch/arm/cpu/armv7/start.o
 .rel.text.usb_display_config
                0x0000000008061b40       0xa8 arch/arm/cpu/armv7/start.o
 .rel.text.do_usbboot
                0x0000000008061be8        0x8 arch/arm/cpu/armv7/start.o
 .rel.text.do_usb_start
                0x0000000008061bf0        0x8 arch/arm/cpu/armv7/start.o
 .rel.text.usb_display_desc.part.3
                0x0000000008061bf8       0x38 arch/arm/cpu/armv7/start.o
 .rel.text.do_usb
                0x0000000008061c30      0x170 arch/arm/cpu/armv7/start.o
 .rel.text.usb_stop
                0x0000000008061da0       0x18 arch/arm/cpu/armv7/start.o
 .rel.text.usb_disable_asynch
                0x0000000008061db8        0x8 arch/arm/cpu/armv7/start.o
 .rel.text.usb_control_msg
                0x0000000008061dc0        0x8 arch/arm/cpu/armv7/start.o
 .rel.text.usb_string_sub
                0x0000000008061dc8        0x8 arch/arm/cpu/armv7/start.o
 .rel.text.usb_get_configuration_no
                0x0000000008061dd0       0x20 arch/arm/cpu/armv7/start.o
 .rel.text.usb_set_interface
                0x0000000008061df0        0x8 arch/arm/cpu/armv7/start.o
 .rel.text.usb_get_dev_index
                0x0000000008061df8        0x8 arch/arm/cpu/armv7/start.o
 .rel.text.usb_alloc_new_device
                0x0000000008061e00       0x18 arch/arm/cpu/armv7/start.o
 .rel.text.usb_free_device
                0x0000000008061e18       0x10 arch/arm/cpu/armv7/start.o
 .rel.text.usb_new_device
                0x0000000008061e28       0x98 arch/arm/cpu/armv7/start.o
 .rel.text.usb_init
                0x0000000008061ec0       0x58 arch/arm/cpu/armv7/start.o
 .rel.text.usb_hub_reset
                0x0000000008061f18        0x8 arch/arm/cpu/armv7/start.o
 .rel.text.usb_hub_port_connect_change
                0x0000000008061f20        0x8 arch/arm/cpu/armv7/start.o
 .rel.text.usb_hub_configure
                0x0000000008061f28       0x18 arch/arm/cpu/armv7/start.o
 .rel.text.usb_stor_BBB_transport
                0x0000000008061f40       0x10 arch/arm/cpu/armv7/start.o
 .rel.text.usb_stor_CB_comdat
                0x0000000008061f50        0x8 arch/arm/cpu/armv7/start.o
 .rel.text.usb_stor_CBI_get_status.isra.4
                0x0000000008061f58        0x8 arch/arm/cpu/armv7/start.o
 .rel.text.usb_stor_CB_transport
                0x0000000008061f60       0x10 arch/arm/cpu/armv7/start.o
 .rel.text.usb_request_sense.constprop.10
                0x0000000008061f70        0x8 arch/arm/cpu/armv7/start.o
 .rel.text.usb_stor_write
                0x0000000008061f78       0x10 arch/arm/cpu/armv7/start.o
 .rel.text.usb_stor_read
                0x0000000008061f88       0x10 arch/arm/cpu/armv7/start.o
 .rel.text.usb_stor_get_dev
                0x0000000008061f98       0x10 arch/arm/cpu/armv7/start.o
 .rel.text.usb_stor_info
                0x0000000008061fa8       0x20 arch/arm/cpu/armv7/start.o
 .rel.text.usb_storage_probe
                0x0000000008061fc8       0x38 arch/arm/cpu/armv7/start.o
 .rel.text.usb_stor_get_info
                0x0000000008062000       0x20 arch/arm/cpu/armv7/start.o
 .rel.text.usb_stor_scan
                0x0000000008062020       0x40 arch/arm/cpu/armv7/start.o
 .rel.text.do_fastboot
                0x0000000008062060       0x10 arch/arm/cpu/armv7/start.o
 .rel.text.ums_init
                0x0000000008062070       0x10 arch/arm/cpu/armv7/start.o
 .rel.text.do_usb_mass_storage
                0x0000000008062080       0x70 arch/arm/cpu/armv7/start.o
 .rel.text.iomux_printdevs
                0x00000000080620f0        0x0 arch/arm/cpu/armv7/start.o
 .rel.text.iomux_doenv
                0x00000000080620f0       0x10 arch/arm/cpu/armv7/start.o
 .rel.text.splash_get_pos
                0x0000000008062100        0x8 arch/arm/cpu/armv7/start.o
 .rel.text.do_env_delete
                0x0000000008062108       0x10 arch/arm/cpu/armv7/start.o
 .rel.text.do_env_save
                0x0000000008062118       0x10 arch/arm/cpu/armv7/start.o
 .rel.text.do_env
                0x0000000008062128        0x8 arch/arm/cpu/armv7/start.o
 .rel.text.env_print
                0x0000000008062130       0x18 arch/arm/cpu/armv7/start.o
 .rel.text.do_env_print
                0x0000000008062148       0x10 arch/arm/cpu/armv7/start.o
 .rel.text.do_env_import
                0x0000000008062158       0x58 arch/arm/cpu/armv7/start.o
 .rel.text.do_env_default
                0x00000000080621b0        0x8 arch/arm/cpu/armv7/start.o
 .rel.text._do_env_set.isra.1
                0x00000000080621b8       0x30 arch/arm/cpu/armv7/start.o
 .rel.text.get_env_id
                0x00000000080621e8        0x8 arch/arm/cpu/armv7/start.o
 .rel.text.setenv
                0x00000000080621f0        0x8 arch/arm/cpu/armv7/start.o
 .rel.text.setenv_hex
                0x00000000080621f8        0x8 arch/arm/cpu/armv7/start.o
 .rel.text.do_env_export
                0x0000000008062200       0x40 arch/arm/cpu/armv7/start.o
 .rel.text.getenv_f
                0x0000000008062240        0x8 arch/arm/cpu/armv7/start.o
 .rel.text.getenv
                0x0000000008062248        0x8 arch/arm/cpu/armv7/start.o
 .rel.text.env_get_addr
                0x0000000008062250        0x8 arch/arm/cpu/armv7/start.o
 .rel.text.env_get_char
                0x0000000008062258        0x8 arch/arm/cpu/armv7/start.o
 .rel.text.set_default_env
                0x0000000008062260       0x40 arch/arm/cpu/armv7/start.o
 .rel.text.set_default_vars
                0x00000000080622a0       0x10 arch/arm/cpu/armv7/start.o
 .rel.text.env_import
                0x00000000080622b0       0x38 arch/arm/cpu/armv7/start.o
 .rel.text.env_export
                0x00000000080622e8       0x28 arch/arm/cpu/armv7/start.o
 .rel.text.env_relocate
                0x0000000008062310        0x8 arch/arm/cpu/armv7/start.o
 .rel.text.console_tstc
                0x0000000008062318       0x20 arch/arm/cpu/armv7/start.o
 .rel.text.console_putc
                0x0000000008062338       0x10 arch/arm/cpu/armv7/start.o
 .rel.text.console_puts
                0x0000000008062348       0x10 arch/arm/cpu/armv7/start.o
 .rel.text.console_getc.isra.0
                0x0000000008062358        0x8 arch/arm/cpu/armv7/start.o
 .rel.text.on_console
                0x0000000008062360       0x20 arch/arm/cpu/armv7/start.o
 .rel.text.getc
                0x0000000008062380        0x8 arch/arm/cpu/armv7/start.o
 .rel.text.fgetc
                0x0000000008062388        0x0 arch/arm/cpu/armv7/start.o
 .rel.text.ctrlc
                0x0000000008062388       0x10 arch/arm/cpu/armv7/start.o
 .rel.text.confirm_yesno
                0x0000000008062398        0x0 arch/arm/cpu/armv7/start.o
 .rel.text.disable_ctrlc
                0x0000000008062398        0x8 arch/arm/cpu/armv7/start.o
 .rel.text.had_ctrlc
                0x00000000080623a0        0x8 arch/arm/cpu/armv7/start.o
 .rel.text.clear_ctrlc
                0x00000000080623a8        0x8 arch/arm/cpu/armv7/start.o
 .rel.text.console_assign
                0x00000000080623b0       0x30 arch/arm/cpu/armv7/start.o
 .rel.text.stdio_print_current_devices
                0x00000000080623e0       0x40 arch/arm/cpu/armv7/start.o
 .rel.text.console_init_r
                0x0000000008062420       0x48 arch/arm/cpu/armv7/start.o
 .rel.text.sbrk
                0x0000000008062468       0x18 arch/arm/cpu/armv7/start.o
 .rel.text.mem_malloc_init
                0x0000000008062480       0x18 arch/arm/cpu/armv7/start.o
 .rel.text.malloc_trim
                0x0000000008062498       0x18 arch/arm/cpu/armv7/start.o
 .rel.text.free
                0x00000000080624b0       0x18 arch/arm/cpu/armv7/start.o
 .rel.text.malloc
                0x00000000080624c8       0x40 arch/arm/cpu/armv7/start.o
 .rel.text.calloc
                0x0000000008062508        0x8 arch/arm/cpu/armv7/start.o
 .rel.text.realloc
                0x0000000008062510        0x8 arch/arm/cpu/armv7/start.o
 .rel.text.mallopt
                0x0000000008062518        0x0 arch/arm/cpu/armv7/start.o
 .rel.text.on_loadaddr
                0x0000000008062518        0x8 arch/arm/cpu/armv7/start.o
 .rel.text.getenv_bootm_low
                0x0000000008062520        0x8 arch/arm/cpu/armv7/start.o
 .rel.text.getenv_bootm_size
                0x0000000008062528       0x10 arch/arm/cpu/armv7/start.o
 .rel.text.getenv_bootm_mapsize
                0x0000000008062538        0x8 arch/arm/cpu/armv7/start.o
 .rel.text.genimg_print_size
                0x0000000008062540       0x10 arch/arm/cpu/armv7/start.o
 .rel.text.genimg_get_os_name
                0x0000000008062550       0x10 arch/arm/cpu/armv7/start.o
 .rel.text.genimg_get_arch_name
                0x0000000008062560       0x10 arch/arm/cpu/armv7/start.o
 .rel.text.genimg_get_type_name
                0x0000000008062570       0x10 arch/arm/cpu/armv7/start.o
 .rel.text.genimg_get_comp_name
                0x0000000008062580       0x10 arch/arm/cpu/armv7/start.o
 .rel.text.image_print_contents
                0x0000000008062590       0x50 arch/arm/cpu/armv7/start.o
 .rel.text.genimg_get_os_id
                0x00000000080625e0       0x10 arch/arm/cpu/armv7/start.o
 .rel.text.genimg_get_arch_id
                0x00000000080625f0       0x10 arch/arm/cpu/armv7/start.o
 .rel.text.genimg_get_type_id
                0x0000000008062600       0x10 arch/arm/cpu/armv7/start.o
 .rel.text.genimg_get_comp_id
                0x0000000008062610       0x10 arch/arm/cpu/armv7/start.o
 .rel.text.genimg_get_kernel_addr_fit
                0x0000000008062620        0x8 arch/arm/cpu/armv7/start.o
 .rel.text.boot_get_ramdisk
                0x0000000008062628       0x60 arch/arm/cpu/armv7/start.o
 .rel.text.boot_ramdisk_high
                0x0000000008062688       0x20 arch/arm/cpu/armv7/start.o
 .rel.text.android_image_get_kernel
                0x00000000080626a8       0x38 arch/arm/cpu/armv7/start.o
 .rel.text.android_image_check_header
                0x00000000080626e0        0x8 arch/arm/cpu/armv7/start.o
 .rel.text.android_image_get_ramdisk
                0x00000000080626e8        0x8 arch/arm/cpu/armv7/start.o
 .rel.text.fdt_error
                0x00000000080626f0       0x10 arch/arm/cpu/armv7/start.o
 .rel.text.boot_fdt_add_mem_rsv_regions
                0x0000000008062700        0x8 arch/arm/cpu/armv7/start.o
 .rel.text.boot_relocate_fdt
                0x0000000008062708       0x40 arch/arm/cpu/armv7/start.o
 .rel.text.boot_get_fdt
                0x0000000008062748       0x90 arch/arm/cpu/armv7/start.o
 .rel.text.image_setup_libfdt
                0x00000000080627d8       0x18 arch/arm/cpu/armv7/start.o
 .rel.text.fit_get_desc
                0x00000000080627f0        0x8 arch/arm/cpu/armv7/start.o
 .rel.text.fit_get_timestamp
                0x00000000080627f8        0x0 arch/arm/cpu/armv7/start.o
 .rel.text.fit_image_get_node
                0x00000000080627f8        0x8 arch/arm/cpu/armv7/start.o
 .rel.text.fit_image_get_os
                0x0000000008062800        0x8 arch/arm/cpu/armv7/start.o
 .rel.text.fit_image_get_arch
                0x0000000008062808        0x8 arch/arm/cpu/armv7/start.o
 .rel.text.fit_image_get_type
                0x0000000008062810        0x8 arch/arm/cpu/armv7/start.o
 .rel.text.fit_image_get_comp
                0x0000000008062818        0x8 arch/arm/cpu/armv7/start.o
 .rel.text.fit_image_get_load
                0x0000000008062820        0x8 arch/arm/cpu/armv7/start.o
 .rel.text.fit_image_get_entry
                0x0000000008062828        0x8 arch/arm/cpu/armv7/start.o
 .rel.text.fit_image_get_data
                0x0000000008062830        0x8 arch/arm/cpu/armv7/start.o
 .rel.text.fit_image_hash_get_algo
                0x0000000008062838        0x8 arch/arm/cpu/armv7/start.o
 .rel.text.fit_image_hash_get_value
                0x0000000008062840        0x8 arch/arm/cpu/armv7/start.o
 .rel.text.fit_image_print_data
                0x0000000008062848       0x58 arch/arm/cpu/armv7/start.o
 .rel.text.fit_image_print
                0x00000000080628a0       0x80 arch/arm/cpu/armv7/start.o
 .rel.text.fit_set_timestamp
                0x0000000008062920        0x0 arch/arm/cpu/armv7/start.o
 .rel.text.calculate_hash
                0x0000000008062920       0x20 arch/arm/cpu/armv7/start.o
 .rel.text.fit_image_verify
                0x0000000008062940       0x68 arch/arm/cpu/armv7/start.o
 .rel.text.fit_all_image_verify
                0x00000000080629a8        0x0 arch/arm/cpu/armv7/start.o
 .rel.text.fit_check_format
                0x00000000080629a8       0x10 arch/arm/cpu/armv7/start.o
 .rel.text.fit_conf_find_compat
                0x00000000080629b8        0x0 arch/arm/cpu/armv7/start.o
 .rel.text.fit_conf_get_node
                0x00000000080629b8       0x10 arch/arm/cpu/armv7/start.o
 .rel.text.fit_conf_print
                0x00000000080629c8       0x48 arch/arm/cpu/armv7/start.o
 .rel.text.fit_print_contents
                0x0000000008062a10       0x58 arch/arm/cpu/armv7/start.o
 .rel.text.fit_image_load
                0x0000000008062a68       0xa0 arch/arm/cpu/armv7/start.o
 .rel.text.boot_get_setup_fit
                0x0000000008062b08        0x8 arch/arm/cpu/armv7/start.o
 .rel.text.stdio_get_list
                0x0000000008062b10        0x0 arch/arm/cpu/armv7/start.o
 .rel.text.stdio_get_by_name
                0x0000000008062b10        0x8 arch/arm/cpu/armv7/start.o
 .rel.text.stdio_register_dev
                0x0000000008062b18        0x8 arch/arm/cpu/armv7/start.o
 .rel.text.stdio_init_tables
                0x0000000008062b20        0x8 arch/arm/cpu/armv7/start.o
 .rel.text.stdio_add_devices
                0x0000000008062b28       0x48 arch/arm/cpu/armv7/start.o
 .rel.text.write_sparse_image
                0x0000000008062b70       0xb0 arch/arm/cpu/armv7/start.o
 .rel.text.fastboot_fail
                0x0000000008062c20       0x10 arch/arm/cpu/armv7/start.o
 .rel.text.fastboot_okay
                0x0000000008062c30       0x10 arch/arm/cpu/armv7/start.o
 .rel.text.fb_mmc_flash_write
                0x0000000008062c40       0xc8 arch/arm/cpu/armv7/start.o
 .rel.text.fb_mmc_erase
                0x0000000008062d08       0x68 arch/arm/cpu/armv7/start.o
 .rel.text.cli_simple_parse_line
                0x0000000008062d70        0x0 arch/arm/cpu/armv7/start.o
 .rel.text.cli_simple_run_command
                0x0000000008062d70        0x0 arch/arm/cpu/armv7/start.o
 .rel.text.cli_simple_loop
                0x0000000008062d70        0x0 arch/arm/cpu/armv7/start.o
 .rel.text.do_run
                0x0000000008062d70        0x8 arch/arm/cpu/armv7/start.o
 .rel.text.cli_process_fdt
                0x0000000008062d78       0x10 arch/arm/cpu/armv7/start.o
 .rel.text.cli_secure_boot_cmd
                0x0000000008062d88       0x18 arch/arm/cpu/armv7/start.o
 .rel.text.delete_char.part.0
                0x0000000008062da0       0x10 arch/arm/cpu/armv7/start.o
 .rel.text.cli_readline_into_buffer
                0x0000000008062db0       0x18 arch/arm/cpu/armv7/start.o
 .rel.text.cli_readline
                0x0000000008062dc8        0x8 arch/arm/cpu/armv7/start.o
 .rel.text.find_cmd
                0x0000000008062dd0       0x10 arch/arm/cpu/armv7/start.o
 .rel.text.cmd_usage
                0x0000000008062de0       0x18 arch/arm/cpu/armv7/start.o
 .rel.text._do_help
                0x0000000008062df8       0x10 arch/arm/cpu/armv7/start.o
 .rel.text.cmd_get_data_size
                0x0000000008062e08        0x8 arch/arm/cpu/armv7/start.o
 .rel.text.cmd_process
                0x0000000008062e10        0x8 arch/arm/cpu/armv7/start.o
 .rel.text.cmd_process_error
                0x0000000008062e18        0x0 arch/arm/cpu/armv7/start.o
 .rel.text.srec_decode
                0x0000000008062e18        0x0 arch/arm/cpu/armv7/start.o
 .rel.text.xyzModem_get_hdr
                0x0000000008062e18        0x0 arch/arm/cpu/armv7/start.o
 .rel.text.xyzModem_stream_open
                0x0000000008062e18        0x0 arch/arm/cpu/armv7/start.o
 .rel.text.xyzModem_stream_read
                0x0000000008062e18        0x0 arch/arm/cpu/armv7/start.o
 .rel.text.xyzModem_stream_close
                0x0000000008062e18        0x0 arch/arm/cpu/armv7/start.o
 .rel.text.xyzModem_stream_terminate
                0x0000000008062e18        0x0 arch/arm/cpu/armv7/start.o
 .rel.text.xyzModem_error
                0x0000000008062e18        0x0 arch/arm/cpu/armv7/start.o
 .rel.text.common_diskboot
                0x0000000008062e18       0x38 arch/arm/cpu/armv7/start.o
 .rel.rodata.boot_os
                0x0000000008062e50       0x30 arch/arm/cpu/armv7/start.o
 .rel.rodata.op_adv
                0x0000000008062e80       0x80 arch/arm/cpu/armv7/start.o
 .rel.rodata.CSWTCH.26
                0x0000000008062f00       0x28 arch/arm/cpu/armv7/start.o
 .rel.rodata.uimage_comp
                0x0000000008062f28       0x60 arch/arm/cpu/armv7/start.o
 .rel.rodata.uimage_os
                0x0000000008062f88       0x88 arch/arm/cpu/armv7/start.o
 .rel.rodata.uimage_arch
                0x0000000008063010      0x188 arch/arm/cpu/armv7/start.o
 .rel.rodata.uimage_type
                0x0000000008063198      0x168 arch/arm/cpu/armv7/start.o
 .rel.rodata.CSWTCH.96
                0x0000000008063300       0x98 arch/arm/cpu/armv7/start.o
 .rel.rodata.CSWTCH.28
                0x0000000008063398        0x0 arch/arm/cpu/armv7/start.o
 .rel.data.hash_algo
                0x0000000008063398       0x78 arch/arm/cpu/armv7/start.o
 .rel.data.reserved_list
                0x0000000008063410       0x58 arch/arm/cpu/armv7/start.o
 .rel.u_boot_list_2_cmd_2_showvar
                0x0000000008063468       0x20 arch/arm/cpu/armv7/start.o
 .rel.data.init_sequence_f
                0x0000000008063488      0x118 arch/arm/cpu/armv7/start.o
 .rel.data.init_sequence_r
                0x00000000080635a0       0xe0 arch/arm/cpu/armv7/start.o
 .rel.u_boot_list_2_cmd_2_go
                0x0000000008063680       0x20 arch/arm/cpu/armv7/start.o
 .rel.u_boot_list_2_cmd_2_reset
                0x00000000080636a0       0x20 arch/arm/cpu/armv7/start.o
 .rel.u_boot_list_2_cmd_2_bootz
                0x00000000080636c0       0x20 arch/arm/cpu/armv7/start.o
 .rel.u_boot_list_2_cmd_2_booti
                0x00000000080636e0       0x20 arch/arm/cpu/armv7/start.o
 .rel.u_boot_list_2_cmd_2_bootm
                0x0000000008063700       0x20 arch/arm/cpu/armv7/start.o
 .rel.data.cmd_bootm_sub
                0x0000000008063720       0xd8 arch/arm/cpu/armv7/start.o
 .rel.u_boot_list_2_cmd_2_question_mark
                0x00000000080637f8       0x20 arch/arm/cpu/armv7/start.o
 .rel.u_boot_list_2_cmd_2_help
                0x0000000008063818       0x20 arch/arm/cpu/armv7/start.o
 .rel.u_boot_list_2_cmd_2_version
                0x0000000008063838       0x20 arch/arm/cpu/armv7/start.o
 .rel.u_boot_list_2_env_clbk_2_callbacks
                0x0000000008063858       0x10 arch/arm/cpu/armv7/start.o
 .rel.u_boot_list_2_env_clbk_2_flags
                0x0000000008063868       0x10 arch/arm/cpu/armv7/start.o
 .rel.data.env_name_spec
                0x0000000008063878        0x8 arch/arm/cpu/armv7/start.o
 .rel.u_boot_list_2_cmd_2_source
                0x0000000008063880       0x20 arch/arm/cpu/armv7/start.o
 .rel.u_boot_list_2_cmd_2_echo
                0x00000000080638a0       0x20 arch/arm/cpu/armv7/start.o
 .rel.u_boot_list_2_cmd_2_exit
                0x00000000080638c0       0x20 arch/arm/cpu/armv7/start.o
 .rel.u_boot_list_2_cmd_2_ext4load
                0x00000000080638e0       0x20 arch/arm/cpu/armv7/start.o
 .rel.u_boot_list_2_cmd_2_ext4ls
                0x0000000008063900       0x20 arch/arm/cpu/armv7/start.o
 .rel.u_boot_list_2_cmd_2_ext4size
                0x0000000008063920       0x20 arch/arm/cpu/armv7/start.o
 .rel.u_boot_list_2_cmd_2_ext2ls
                0x0000000008063940       0x20 arch/arm/cpu/armv7/start.o
 .rel.u_boot_list_2_cmd_2_ext2load
                0x0000000008063960       0x20 arch/arm/cpu/armv7/start.o
 .rel.u_boot_list_2_cmd_2_fatinfo
                0x0000000008063980       0x20 arch/arm/cpu/armv7/start.o
 .rel.u_boot_list_2_cmd_2_fatwrite
                0x00000000080639a0       0x20 arch/arm/cpu/armv7/start.o
 .rel.u_boot_list_2_cmd_2_fatload
                0x00000000080639c0       0x20 arch/arm/cpu/armv7/start.o
 .rel.u_boot_list_2_cmd_2_fatls
                0x00000000080639e0       0x20 arch/arm/cpu/armv7/start.o
 .rel.u_boot_list_2_cmd_2_fatsize
                0x0000000008063a00       0x20 arch/arm/cpu/armv7/start.o
 .rel.u_boot_list_2_cmd_2_fdt
                0x0000000008063a20       0x20 arch/arm/cpu/armv7/start.o
 .rel.data.of_busses
                0x0000000008063a40        0x0 arch/arm/cpu/armv7/start.o
 .rel.u_boot_list_2_cmd_2_save
                0x0000000008063a40       0x20 arch/arm/cpu/armv7/start.o
 .rel.u_boot_list_2_cmd_2_size
                0x0000000008063a60       0x20 arch/arm/cpu/armv7/start.o
 .rel.u_boot_list_2_cmd_2_fstype
                0x0000000008063a80       0x20 arch/arm/cpu/armv7/start.o
 .rel.u_boot_list_2_cmd_2_ls
                0x0000000008063aa0       0x20 arch/arm/cpu/armv7/start.o
 .rel.u_boot_list_2_cmd_2_load
                0x0000000008063ac0       0x20 arch/arm/cpu/armv7/start.o
 .rel.u_boot_list_2_cmd_2_base
                0x0000000008063ae0       0x20 arch/arm/cpu/armv7/start.o
 .rel.u_boot_list_2_cmd_2_cmp
                0x0000000008063b00       0x20 arch/arm/cpu/armv7/start.o
 .rel.u_boot_list_2_cmd_2_nm
                0x0000000008063b20       0x20 arch/arm/cpu/armv7/start.o
 .rel.u_boot_list_2_cmd_2_loop
                0x0000000008063b40       0x20 arch/arm/cpu/armv7/start.o
 .rel.u_boot_list_2_cmd_2_cp
                0x0000000008063b60       0x20 arch/arm/cpu/armv7/start.o
 .rel.u_boot_list_2_cmd_2_mm
                0x0000000008063b80       0x20 arch/arm/cpu/armv7/start.o
 .rel.u_boot_list_2_cmd_2_crc32
                0x0000000008063ba0       0x20 arch/arm/cpu/armv7/start.o
 .rel.u_boot_list_2_cmd_2_md
                0x0000000008063bc0       0x20 arch/arm/cpu/armv7/start.o
 .rel.u_boot_list_2_cmd_2_mw
                0x0000000008063be0       0x20 arch/arm/cpu/armv7/start.o
 .rel.u_boot_list_2_cmd_2_mmcinfo
                0x0000000008063c00       0x20 arch/arm/cpu/armv7/start.o
 .rel.data.cmd_mmc
                0x0000000008063c20      0x140 arch/arm/cpu/armv7/start.o
 .rel.u_boot_list_2_cmd_2_mmc
                0x0000000008063d60       0x20 arch/arm/cpu/armv7/start.o
 .rel.u_boot_list_2_cmd_2_ping
                0x0000000008063d80       0x20 arch/arm/cpu/armv7/start.o
 .rel.u_boot_list_2_cmd_2_bootp
                0x0000000008063da0       0x20 arch/arm/cpu/armv7/start.o
 .rel.u_boot_list_2_cmd_2_tftpboot
                0x0000000008063dc0       0x20 arch/arm/cpu/armv7/start.o
 .rel.u_boot_list_2_cmd_2_usbnet
                0x0000000008063de0       0x20 arch/arm/cpu/armv7/start.o
 .rel.u_boot_list_2_cmd_2_test
                0x0000000008063e00       0x20 arch/arm/cpu/armv7/start.o
 .rel.u_boot_list_2_cmd_2_true
                0x0000000008063e20       0x18 arch/arm/cpu/armv7/start.o
 .rel.u_boot_list_2_cmd_2_false
                0x0000000008063e38       0x18 arch/arm/cpu/armv7/start.o
 .rel.u_boot_list_2_cmd_2_usb
                0x0000000008063e50       0x20 arch/arm/cpu/armv7/start.o
 .rel.u_boot_list_2_cmd_2_usbboot
                0x0000000008063e70       0x20 arch/arm/cpu/armv7/start.o
 .rel.u_boot_list_2_cmd_2_fastboot
                0x0000000008063e90       0x20 arch/arm/cpu/armv7/start.o
 .rel.u_boot_list_2_cmd_2_ums
                0x0000000008063eb0       0x20 arch/arm/cpu/armv7/start.o
 .rel.data.ums_dev
                0x0000000008063ed0       0x18 arch/arm/cpu/armv7/start.o
 .rel.u_boot_list_2_cmd_2_setenv
                0x0000000008063ee8       0x20 arch/arm/cpu/armv7/start.o
 .rel.u_boot_list_2_cmd_2_env
                0x0000000008063f08       0x20 arch/arm/cpu/armv7/start.o
 .rel.u_boot_list_2_cmd_2_saveenv
                0x0000000008063f28       0x20 arch/arm/cpu/armv7/start.o
 .rel.data.cmd_env_sub
                0x0000000008063f48      0x100 arch/arm/cpu/armv7/start.o
 .rel.u_boot_list_2_cmd_2_printenv
                0x0000000008064048       0x20 arch/arm/cpu/armv7/start.o
 .rel.u_boot_list_2_cmd_2_run
                0x0000000008064068       0x20 arch/arm/cpu/armv7/start.o
 .rel.data.env_htab
                0x0000000008064088        0x8 arch/arm/cpu/armv7/start.o
 .rel.u_boot_list_2_env_clbk_2_console
                0x0000000008064090       0x10 arch/arm/cpu/armv7/start.o
 .rel.data.av_  0x00000000080640a0      0x800 arch/arm/cpu/armv7/start.o
 .rel.u_boot_list_2_env_clbk_2_loadaddr
                0x00000000080648a0       0x10 arch/arm/cpu/armv7/start.o
 .rel.data.stdio_names
                0x00000000080648b0        0x0 arch/arm/cpu/armv7/start.o
 .rel.text.get_dev_hwpart
                0x00000000080648b0        0x8 arch/arm/cpu/armv7/start.o
 .rel.text.print_part_header
                0x00000000080648b8       0xa0 arch/arm/cpu/armv7/start.o
 .rel.text.dev_print
                0x0000000008064958      0x110 arch/arm/cpu/armv7/start.o
 .rel.text.print_part
                0x0000000008064a68       0x18 arch/arm/cpu/armv7/start.o
 .rel.text.get_device
                0x0000000008064a80       0x18 arch/arm/cpu/armv7/start.o
 .rel.text.get_device_and_partition
                0x0000000008064a98       0x70 arch/arm/cpu/armv7/start.o
 .rel.text.test_block_type
                0x0000000008064b08       0x10 arch/arm/cpu/armv7/start.o
 .rel.text.print_partition_extended
                0x0000000008064b18       0x30 arch/arm/cpu/armv7/start.o
 .rel.text.get_partition_info_extended
                0x0000000008064b48       0x88 arch/arm/cpu/armv7/start.o
 .rel.text.print_part_dos
                0x0000000008064bd0        0x8 arch/arm/cpu/armv7/start.o
 .rel.text.print_efiname
                0x0000000008064bd8       0x10 arch/arm/cpu/armv7/start.o
 .rel.text.set_protective_mbr
                0x0000000008064be8        0x0 arch/arm/cpu/armv7/start.o
 .rel.text.validate_gpt_entries
                0x0000000008064be8       0x10 arch/arm/cpu/armv7/start.o
 .rel.text.validate_gpt_header
                0x0000000008064bf8       0x30 arch/arm/cpu/armv7/start.o
 .rel.text.is_gpt_valid
                0x0000000008064c28       0x38 arch/arm/cpu/armv7/start.o
 .rel.text.is_pte_valid
                0x0000000008064c60       0x10 arch/arm/cpu/armv7/start.o
 .rel.text.print_part_efi
                0x0000000008064c70       0x60 arch/arm/cpu/armv7/start.o
 .rel.text.get_partition_info_efi
                0x0000000008064cd0       0x40 arch/arm/cpu/armv7/start.o
 .rel.text.write_gpt_table
                0x0000000008064d10        0x0 arch/arm/cpu/armv7/start.o
 .rel.text.gpt_fill_pte
                0x0000000008064d10        0x0 arch/arm/cpu/armv7/start.o
 .rel.text.gpt_restore
                0x0000000008064d10        0x0 arch/arm/cpu/armv7/start.o
 .rel.text.write_mbr_and_gpt_partitions
                0x0000000008064d10       0x38 arch/arm/cpu/armv7/start.o
 .rel.rodata.block_drvr
                0x0000000008064d48       0x28 arch/arm/cpu/armv7/start.o
 .rel.text.dump_mem.constprop.4
                0x0000000008064d70        0x0 arch/arm/cpu/armv7/start.o
 .rel.text.read_storage
                0x0000000008064d70        0x0 arch/arm/cpu/armv7/start.o
 .rel.text.write_storage
                0x0000000008064d70        0x0 arch/arm/cpu/armv7/start.o
 .rel.text.read_mi_head
                0x0000000008064d70        0x0 arch/arm/cpu/armv7/start.o
 .rel.text.read_mi_item
                0x0000000008064d70        0x0 arch/arm/cpu/armv7/start.o
 .rel.text.print_mi_items
                0x0000000008064d70        0x0 arch/arm/cpu/armv7/start.o
 .rel.text.get_item_size
                0x0000000008064d70        0x0 arch/arm/cpu/armv7/start.o
 .rel.text.read_misc_info
                0x0000000008064d70        0x0 arch/arm/cpu/armv7/start.o
 .rel.text.write_misc_info
                0x0000000008064d70        0x0 arch/arm/cpu/armv7/start.o
 .rel.text.write_mi_item
                0x0000000008064d70        0x0 arch/arm/cpu/armv7/start.o
 .rel.text.format_misc_info
                0x0000000008064d70        0x0 arch/arm/cpu/armv7/start.o
 .rel.text.video_drawchars
                0x0000000008064d70       0x80 arch/arm/cpu/armv7/start.o
 .rel.text.console_newline.constprop.1
                0x0000000008064df0       0x30 arch/arm/cpu/armv7/start.o
 .rel.text.video_putc
                0x0000000008064e20       0x68 arch/arm/cpu/armv7/start.o
 .rel.text.video_puts
                0x0000000008064e88       0x10 arch/arm/cpu/armv7/start.o
 .rel.text.plot_logo_or_black
                0x0000000008064e98       0x50 arch/arm/cpu/armv7/start.o
 .rel.text.do_clrlogo
                0x0000000008064ee8       0x20 arch/arm/cpu/armv7/start.o
 .rel.text.video_display_bitmap
                0x0000000008064f08       0xb0 arch/arm/cpu/armv7/start.o
 .rel.text.video_clear
                0x0000000008064fb8       0x18 arch/arm/cpu/armv7/start.o
 .rel.text.drv_video_init
                0x0000000008064fd0       0xc0 arch/arm/cpu/armv7/start.o
 .rel.text.video_position_cursor
                0x0000000008065090        0x0 arch/arm/cpu/armv7/start.o
 .rel.text.video_get_pixel_width
                0x0000000008065090        0x0 arch/arm/cpu/armv7/start.o
 .rel.text.video_get_pixel_height
                0x0000000008065090        0x0 arch/arm/cpu/armv7/start.o
 .rel.text.video_get_screen_rows
                0x0000000008065090        0x0 arch/arm/cpu/armv7/start.o
 .rel.text.video_get_screen_columns
                0x0000000008065090        0x0 arch/arm/cpu/armv7/start.o
 .rel.text.de_hw_init
                0x0000000008065090       0x40 arch/arm/cpu/armv7/start.o
 .rel.text.owl_display_register
                0x00000000080650d0       0x10 arch/arm/cpu/armv7/start.o
 .rel.text.disp_enable
                0x00000000080650e0       0x18 arch/arm/cpu/armv7/start.o
 .rel.text.disp_disable
                0x00000000080650f8        0x0 arch/arm/cpu/armv7/start.o
 .rel.text.lcdi_convertion_register
                0x00000000080650f8        0x0 arch/arm/cpu/armv7/start.o
 .rel.text.lcdi_convertion_get
                0x00000000080650f8        0x8 arch/arm/cpu/armv7/start.o
 .rel.text.get_fb_heap_size
                0x0000000008065100       0x18 arch/arm/cpu/armv7/start.o
 .rel.text.string_to_arrange_id
                0x0000000008065118        0x8 arch/arm/cpu/armv7/start.o
 .rel.text.owl_dss_enable
                0x0000000008065120        0x8 arch/arm/cpu/armv7/start.o
 .rel.text.owl_dss_remove
                0x0000000008065128        0x0 arch/arm/cpu/armv7/start.o
 .rel.text.fdtdec_get_fb_par
                0x0000000008065128       0x48 arch/arm/cpu/armv7/start.o
 .rel.text.owl_dss_gamma_init
                0x0000000008065170        0x8 arch/arm/cpu/armv7/start.o
 .rel.text.owl_dss_init
                0x0000000008065178       0x18 arch/arm/cpu/armv7/start.o
 .rel.text.video_hw_init
                0x0000000008065190       0x18 arch/arm/cpu/armv7/start.o
 .rel.text.get_owl_reserved_size
                0x00000000080651a8       0x20 arch/arm/cpu/armv7/start.o
 .rel.text.kinfo_init
                0x00000000080651c8        0x8 arch/arm/cpu/armv7/start.o
 .rel.text.video_get_params
                0x00000000080651d0        0x0 arch/arm/cpu/armv7/start.o
 .rel.text.video_get_video_mode
                0x00000000080651d0        0x0 arch/arm/cpu/armv7/start.o
 .rel.text.video_get_ctfb_res_modes
                0x00000000080651d0        0x0 arch/arm/cpu/armv7/start.o
 .rel.text.lvds_init
                0x00000000080651d0        0x8 arch/arm/cpu/armv7/start.o
 .rel.text.lcd_disable
                0x00000000080651d8        0x8 arch/arm/cpu/armv7/start.o
 .rel.text.lcd_enable
                0x00000000080651e0       0x38 arch/arm/cpu/armv7/start.o
 .rel.text.string_to_port_type
                0x0000000008065218        0x8 arch/arm/cpu/armv7/start.o
 .rel.text.fdtdec_get_lcd_par
                0x0000000008065220       0xc8 arch/arm/cpu/armv7/start.o
 .rel.text.owl_lcd_init
                0x00000000080652e8       0x28 arch/arm/cpu/armv7/start.o
 .rel.text.set_lcd_bl_power
                0x0000000008065310        0x8 arch/arm/cpu/armv7/start.o
 .rel.text.dsi_disable
                0x0000000008065318        0x8 arch/arm/cpu/armv7/start.o
 .rel.text.power_enable
                0x0000000008065320       0x20 arch/arm/cpu/armv7/start.o
 .rel.text.dsi_enable
                0x0000000008065340       0x18 arch/arm/cpu/armv7/start.o
 .rel.text.dsihw_send_long_packet
                0x0000000008065358        0x0 arch/arm/cpu/armv7/start.o
 .rel.text.fdtdec_get_dsi_par
                0x0000000008065358      0x108 arch/arm/cpu/armv7/start.o
 .rel.text.owl_dsi_init
                0x0000000008065460       0x28 arch/arm/cpu/armv7/start.o
 .rel.text.hdmi_gen_gbd_infoframe
                0x0000000008065488        0x8 arch/arm/cpu/armv7/start.o
 .rel.text.hdmi_gen_vs_infoframe
                0x0000000008065490        0x8 arch/arm/cpu/armv7/start.o
 .rel.text.hdmi_get_vid
                0x0000000008065498        0x8 arch/arm/cpu/armv7/start.o
 .rel.text.hdmi_gen_avi_infoframe
                0x00000000080654a0        0x8 arch/arm/cpu/armv7/start.o
 .rel.text.hdmi_get_aid
                0x00000000080654a8        0x8 arch/arm/cpu/armv7/start.o
 .rel.text.hdmi_gen_audio_infoframe
                0x00000000080654b0        0x8 arch/arm/cpu/armv7/start.o
 .rel.text.hdmi_get_mode
                0x00000000080654b8        0x8 arch/arm/cpu/armv7/start.o
 .rel.text.hdmi_set_clk
                0x00000000080654c0       0x50 arch/arm/cpu/armv7/start.o
 .rel.text.hdmi_set_tdms_ldo
                0x0000000008065510       0x50 arch/arm/cpu/armv7/start.o
 .rel.text.hdmi_acr_packet
                0x0000000008065560       0x48 arch/arm/cpu/armv7/start.o
 .rel.text.hdmi_audio_general_cfg
                0x00000000080655a8       0x10 arch/arm/cpu/armv7/start.o
 .rel.text.hdmi_aichsta_cfg
                0x00000000080655b8       0x38 arch/arm/cpu/armv7/start.o
 .rel.text.hdmi_audioch_cfg
                0x00000000080655f0       0x40 arch/arm/cpu/armv7/start.o
 .rel.text.hdmi_video_general_cfg
                0x0000000008065630        0x8 arch/arm/cpu/armv7/start.o
 .rel.text.read_usr_cfg_file
                0x0000000008065638        0x0 arch/arm/cpu/armv7/start.o
 .rel.text.hdmi_init
                0x0000000008065638       0x88 arch/arm/cpu/armv7/start.o
 .rel.text.get_edid_data
                0x00000000080656c0       0x10 arch/arm/cpu/armv7/start.o
 .rel.text.edid_checksum
                0x00000000080656d0        0x8 arch/arm/cpu/armv7/start.o
 .rel.text.edid_header_check
                0x00000000080656d8        0x8 arch/arm/cpu/armv7/start.o
 .rel.text.edid_version_check
                0x00000000080656e0        0x8 arch/arm/cpu/armv7/start.o
 .rel.text.parse_edid
                0x00000000080656e8       0x28 arch/arm/cpu/armv7/start.o
 .rel.text.check_hdmi_mode
                0x0000000008065710       0x28 arch/arm/cpu/armv7/start.o
 .rel.text.print_cvbsreg
                0x0000000008065738        0x0 arch/arm/cpu/armv7/start.o
 .rel.text.cvbs_read_usr_cfg_file
                0x0000000008065738       0x60 arch/arm/cpu/armv7/start.o
 .rel.text.cvbs_init
                0x0000000008065798       0xa0 arch/arm/cpu/armv7/start.o
 .rel.text.owl_pwm_backlight_update_status
                0x0000000008065838        0x8 arch/arm/cpu/armv7/start.o
 .rel.text.owl_pwm_backlight_init
                0x0000000008065840       0x38 arch/arm/cpu/armv7/start.o
 .rel.text.splash_image_init
                0x0000000008065878       0x78 arch/arm/cpu/armv7/start.o
 .rel.text.input_send_keycodes
                0x00000000080658f0        0x0 arch/arm/cpu/armv7/start.o
 .rel.text.input_init
                0x00000000080658f0        0x0 arch/arm/cpu/armv7/start.o
 .rel.text.input_stdio_register
                0x00000000080658f0        0x0 arch/arm/cpu/armv7/start.o
 .rel.text.key_matrix_decode_fdt
                0x00000000080658f0        0x0 arch/arm/cpu/armv7/start.o
 .rel.text.reset_to_adfu
                0x00000000080658f0        0x8 arch/arm/cpu/armv7/start.o
 .rel.text.check_key
                0x00000000080658f8       0x70 arch/arm/cpu/armv7/start.o
 .rel.rodata.arrange_name_list
                0x0000000008065968       0x30 arch/arm/cpu/armv7/start.o
 .rel.rodata.hdmi_display_modes
                0x0000000008065998       0x40 arch/arm/cpu/armv7/start.o
 .rel.rodata.date_fmts
                0x00000000080659d8       0x60 arch/arm/cpu/armv7/start.o
 .rel.rodata.cvbs_display_modes
                0x0000000008065a38       0x10 arch/arm/cpu/armv7/start.o
 .rel.rodata.kbd_to_ansi364
                0x0000000008065a48        0x0 arch/arm/cpu/armv7/start.o
 .rel.u_boot_list_2_cmd_2_clrlogo
                0x0000000008065a48       0x20 arch/arm/cpu/armv7/start.o
 .rel.data.lcd_ops
                0x0000000008065a68       0x10 arch/arm/cpu/armv7/start.o
 .rel.data.port_types
                0x0000000008065a78       0x20 arch/arm/cpu/armv7/start.o
 .rel.data.dsi_ops
                0x0000000008065a98       0x10 arch/arm/cpu/armv7/start.o
 .rel.data.HDMI_SETTING_MODE_PATH
                0x0000000008065aa8        0x0 arch/arm/cpu/armv7/start.o
 .rel.data.hdmi_ops
                0x0000000008065aa8       0x10 arch/arm/cpu/armv7/start.o
 .rel.data.CVBS_SETTING_MODE_PATH
                0x0000000008065ab8        0x8 arch/arm/cpu/armv7/start.o
 .rel.data.cvbs_ops
                0x0000000008065ac0       0x10 arch/arm/cpu/armv7/start.o
 .rel.text.owl_gpio_init
                0x0000000008065ad0       0x20 arch/arm/cpu/armv7/start.o
 .rel.text.gpio_direction_input
                0x0000000008065af0        0x0 arch/arm/cpu/armv7/start.o
 .rel.text.gpio_direction_output
                0x0000000008065af0        0x0 arch/arm/cpu/armv7/start.o
 .rel.text.gpio_get_value
                0x0000000008065af0        0x0 arch/arm/cpu/armv7/start.o
 .rel.text.gpio_set_value
                0x0000000008065af0        0x0 arch/arm/cpu/armv7/start.o
 .rel.text.owl_fdtdec_decode_gpios
                0x0000000008065af0        0x8 arch/arm/cpu/armv7/start.o
 .rel.text.gpiochip_add
                0x0000000008065af8       0x10 arch/arm/cpu/armv7/start.o
 .rel.data.owl_gpiochip_ops
                0x0000000008065b08       0x20 arch/arm/cpu/armv7/start.o
 .rel.text.i2c_set_bus_num
                0x0000000008065b28       0x70 arch/arm/cpu/armv7/start.o
 .rel.text.i2c_get_bus_num
                0x0000000008065b98        0x0 arch/arm/cpu/armv7/start.o
 .rel.text.i2c_probe
                0x0000000008065b98        0x8 arch/arm/cpu/armv7/start.o
 .rel.text.i2c_read
                0x0000000008065ba0        0x8 arch/arm/cpu/armv7/start.o
 .rel.text.i2c_write
                0x0000000008065ba8        0x8 arch/arm/cpu/armv7/start.o
 .rel.text.acts_dump_i2c_register
                0x0000000008065bb0        0x0 arch/arm/cpu/armv7/start.o
 .rel.text.board_i2c_init
                0x0000000008065bb0       0x10 arch/arm/cpu/armv7/start.o
 .rel.text.i2c_get_bus_num_fdt
                0x0000000008065bc0        0x0 arch/arm/cpu/armv7/start.o
 .rel.text.i2c_reset_port_fdt
                0x0000000008065bc0        0x0 arch/arm/cpu/armv7/start.o
 .rel.text.mmc_set_capacity
                0x0000000008065bc0       0x40 arch/arm/cpu/armv7/start.o
 .rel.text.mmc_send_status
                0x0000000008065c00       0x10 arch/arm/cpu/armv7/start.o
 .rel.text.find_mmc_device
                0x0000000008065c10       0x10 arch/arm/cpu/armv7/start.o
 .rel.text.mmc_bread
                0x0000000008065c20       0x10 arch/arm/cpu/armv7/start.o
 .rel.text.mmc_select_hwpart
                0x0000000008065c30        0x8 arch/arm/cpu/armv7/start.o
 .rel.text.mmc_hwpart_config
                0x0000000008065c38       0x48 arch/arm/cpu/armv7/start.o
 .rel.text.mmc_startup
                0x0000000008065c80       0xa8 arch/arm/cpu/armv7/start.o
 .rel.text.mmc_register
                0x0000000008065d28        0x0 arch/arm/cpu/armv7/start.o
 .rel.text.mmc_create
                0x0000000008065d28       0x28 arch/arm/cpu/armv7/start.o
 .rel.text.mmc_start_init
                0x0000000008065d50       0x18 arch/arm/cpu/armv7/start.o
 .rel.text.print_mmc_devices
                0x0000000008065d68       0x40 arch/arm/cpu/armv7/start.o
 .rel.text.get_mmc_num
                0x0000000008065da8        0x8 arch/arm/cpu/armv7/start.o
 .rel.text.mmc_initialize
                0x0000000008065db0       0x10 arch/arm/cpu/armv7/start.o
 .rel.text.owl_mmc_finish_request
                0x0000000008065dc0        0x8 arch/arm/cpu/armv7/start.o
 .rel.text.owl_dump_dmac.isra.0
                0x0000000008065dc8       0x60 arch/arm/cpu/armv7/start.o
 .rel.text.owl_dump_mfp.isra.1
                0x0000000008065e28       0x88 arch/arm/cpu/armv7/start.o
 .rel.text.owl_dump_sdc.isra.2
                0x0000000008065eb0       0x70 arch/arm/cpu/armv7/start.o
 .rel.text.owl_mmc_send_cmd
                0x0000000008065f20       0x48 arch/arm/cpu/armv7/start.o
 .rel.text.module_clk_set.constprop.5
                0x0000000008065f68        0x8 arch/arm/cpu/armv7/start.o
 .rel.text.owl_mmc_init_setup
                0x0000000008065f70       0x20 arch/arm/cpu/armv7/start.o
 .rel.text.owl_mmc_set_ios
                0x0000000008065f90       0x18 arch/arm/cpu/armv7/start.o
 .rel.text.owl_sd_init
                0x0000000008065fa8       0x48 arch/arm/cpu/armv7/start.o
 .rel.text.owl_mmc_init
                0x0000000008065ff0       0x10 arch/arm/cpu/armv7/start.o
 .rel.text.mmc_berase
                0x0000000008066000       0x10 arch/arm/cpu/armv7/start.o
 .rel.text.mmc_bwrite
                0x0000000008066010       0x18 arch/arm/cpu/armv7/start.o
 .rel.rodata.mmc_name
                0x0000000008066028       0x18 arch/arm/cpu/armv7/start.o
 .rel.text.owl_mac_set_macaddr
                0x0000000008066040        0x8 arch/arm/cpu/armv7/start.o
 .rel.text.owl_mac_send
                0x0000000008066048       0x18 arch/arm/cpu/armv7/start.o
 .rel.text.owl_mac_init
                0x0000000008066060       0x28 arch/arm/cpu/armv7/start.o
 .rel.text.owl_print_phy_register
                0x0000000008066088        0x0 arch/arm/cpu/armv7/start.o
 .rel.text.owl_mac_initialize
                0x0000000008066088       0x50 arch/arm/cpu/armv7/start.o
 .rel.text.get_bat_capacity
                0x00000000080660d8        0x8 arch/arm/cpu/armv7/start.o
 .rel.text.get_adaptor_type
                0x00000000080660e0       0x10 arch/arm/cpu/armv7/start.o
 .rel.text.get_cfg_items
                0x00000000080660f0       0x28 arch/arm/cpu/armv7/start.o
 .rel.text.support_minicharger
                0x0000000008066118       0x10 arch/arm/cpu/armv7/start.o
 .rel.text.check_power
                0x0000000008066128       0x30 arch/arm/cpu/armv7/start.o
 .rel.text.bq27441_gasgauge_get_capacity
                0x0000000008066158       0x18 arch/arm/cpu/armv7/start.o
 .rel.text.bq27441_gasgauge_get_voltage
                0x0000000008066170        0x0 arch/arm/cpu/armv7/start.o
 .rel.text.bq27441_gasgauge_get_curr
                0x0000000008066170        0x0 arch/arm/cpu/armv7/start.o
 .rel.text.get_current
                0x0000000008066170       0x10 arch/arm/cpu/armv7/start.o
 .rel.text.serial_register
                0x0000000008066180        0x8 arch/arm/cpu/armv7/start.o
 .rel.text.serial_stdio_init
                0x0000000008066188       0x38 arch/arm/cpu/armv7/start.o
 .rel.text.serial_assign
                0x00000000080661c0       0x10 arch/arm/cpu/armv7/start.o
 .rel.text.serial_reinit_all
                0x00000000080661d0        0x0 arch/arm/cpu/armv7/start.o
 .rel.text.on_baudrate
                0x00000000080661d0       0x18 arch/arm/cpu/armv7/start.o
 .rel.text.owl_uboot_serial_getc
                0x00000000080661e8        0x8 arch/arm/cpu/armv7/start.o
 .rel.text.owl_uboot_serial_setbrg
                0x00000000080661f0       0x10 arch/arm/cpu/armv7/start.o
 .rel.text.owl_uboot_serial_putc
                0x0000000008066200        0x8 arch/arm/cpu/armv7/start.o
 .rel.text.owl_uboot_serial_tstc
                0x0000000008066208        0x8 arch/arm/cpu/armv7/start.o
 .rel.text.owl_serial_initialize
                0x0000000008066210        0x8 arch/arm/cpu/armv7/start.o
 .rel.text.default_serial_console
                0x0000000008066218        0x8 arch/arm/cpu/armv7/start.o
 .rel.u_boot_list_2_env_clbk_2_baudrate
                0x0000000008066220       0x10 arch/arm/cpu/armv7/start.o
 .rel.data.owl_uboot_serial_drv
                0x0000000008066230       0x30 arch/arm/cpu/armv7/start.o
 .rel.text.spi_set_wordlen
                0x0000000008066260        0x0 arch/arm/cpu/armv7/start.o
 .rel.text.spi_init
                0x0000000008066260        0x0 arch/arm/cpu/armv7/start.o
 .rel.text.owl_spi_write_read_8bit
                0x0000000008066260        0x8 arch/arm/cpu/armv7/start.o
 .rel.text.owl_spi_write_read_32bit
                0x0000000008066268        0x8 arch/arm/cpu/armv7/start.o
 .rel.text.spi_setup_slave
                0x0000000008066270        0x0 arch/arm/cpu/armv7/start.o
 .rel.text.usb_ep_autoconfig
                0x0000000008066270        0x8 arch/arm/cpu/armv7/start.o
 .rel.text.usb_ep_autoconfig_reset
                0x0000000008066278        0x8 arch/arm/cpu/armv7/start.o
 .rel.text.setphy
                0x0000000008066280        0x8 arch/arm/cpu/armv7/start.o
 .rel.text.dwc3_gadget_ep_alloc_request
                0x0000000008066288        0x8 arch/arm/cpu/armv7/start.o
 .rel.text.dwc3_gadget_init_hw_endpoints
                0x0000000008066290       0x38 arch/arm/cpu/armv7/start.o
 .rel.text.dwc3_cache_hwparams.constprop.38
                0x00000000080662c8        0x8 arch/arm/cpu/armv7/start.o
 .rel.text.dwc3_event_buffers_cleanup.constprop.40
                0x00000000080662d0        0x8 arch/arm/cpu/armv7/start.o
 .rel.text.dwc3_free_event_buffers.constprop.43
                0x00000000080662d8        0x8 arch/arm/cpu/armv7/start.o
 .rel.text.dwc3_disconnect_gadget.constprop.54
                0x00000000080662e0        0x8 arch/arm/cpu/armv7/start.o
 .rel.text.set_no_delay_status
                0x00000000080662e8        0x0 arch/arm/cpu/armv7/start.o
 .rel.text.dwc3_gadget_wakeup
                0x00000000080662e8       0x10 arch/arm/cpu/armv7/start.o
 .rel.text.dwc3_ep0_set_sel_cmpl
                0x00000000080662f8       0x10 arch/arm/cpu/armv7/start.o
 .rel.text.__dwc3_ep0_do_control_status
                0x0000000008066308       0x10 arch/arm/cpu/armv7/start.o
 .rel.text.__dwc3_ep0_do_control_data
                0x0000000008066318       0x10 arch/arm/cpu/armv7/start.o
 .rel.text.__dwc3_gadget_ep0_queue
                0x0000000008066328        0x8 arch/arm/cpu/armv7/start.o
 .rel.text.dwc3_ep0_out_start
                0x0000000008066330       0x10 arch/arm/cpu/armv7/start.o
 .rel.text.dwc3_stop_active_transfer
                0x0000000008066340       0x18 arch/arm/cpu/armv7/start.o
 .rel.text.dwc3_gadget_ep_dequeue
                0x0000000008066358        0x8 arch/arm/cpu/armv7/start.o
 .rel.text.dwc3_gadget_ep_disable
                0x0000000008066360       0x30 arch/arm/cpu/armv7/start.o
 .rel.text.dwc3_endpoint_transfer_complete.isra.27.constprop.60
                0x0000000008066390       0x30 arch/arm/cpu/armv7/start.o
 .rel.text.__dwc3_gadget_kick_transfer
                0x00000000080663c0       0x18 arch/arm/cpu/armv7/start.o
 .rel.text.dwc3_gadget_ep_queue
                0x00000000080663d8       0x18 arch/arm/cpu/armv7/start.o
 .rel.text.dwc3_gadget_ep_enable
                0x00000000080663f0       0x38 arch/arm/cpu/armv7/start.o
 .rel.text.dwc3_gadget_reset_interrupt.constprop.52
                0x0000000008066428       0x30 arch/arm/cpu/armv7/start.o
 .rel.text.__dwc3_gadget_ep_set_halt
                0x0000000008066458       0x18 arch/arm/cpu/armv7/start.o
 .rel.text.dwc3_ep0_interrupt
                0x0000000008066470       0x40 arch/arm/cpu/armv7/start.o
 .rel.text.dwc3_gadget_init
                0x00000000080664b0       0x30 arch/arm/cpu/armv7/start.o
 .rel.text.dwc3_gadget_resume
                0x00000000080664e0        0x0 arch/arm/cpu/armv7/start.o
 .rel.text.dwc3_phy_init
                0x00000000080664e0       0x18 arch/arm/cpu/armv7/start.o
 .rel.text.owl_usb3_open_powergate
                0x00000000080664f8       0x10 arch/arm/cpu/armv7/start.o
 .rel.text.usb_gadget_handle_interrupts
                0x0000000008066508       0xb0 arch/arm/cpu/armv7/start.o
 .rel.text.usb_gadget_register_driver
                0x00000000080665b8       0x70 arch/arm/cpu/armv7/start.o
 .rel.text.usb_gadget_unregister_driver
                0x0000000008066628        0x8 arch/arm/cpu/armv7/start.o
 .rel.text.composite_suspend
                0x0000000008066630        0x8 arch/arm/cpu/armv7/start.o
 .rel.text.composite_resume
                0x0000000008066638        0x8 arch/arm/cpu/armv7/start.o
 .rel.text.composite_unbind
                0x0000000008066640       0x28 arch/arm/cpu/armv7/start.o
 .rel.text.composite_bind
                0x0000000008066668       0x10 arch/arm/cpu/armv7/start.o
 .rel.text.g_dnl_do_config
                0x0000000008066678       0x10 arch/arm/cpu/armv7/start.o
 .rel.text.composite_disconnect
                0x0000000008066688        0x8 arch/arm/cpu/armv7/start.o
 .rel.text.composite_setup
                0x0000000008066690       0xb8 arch/arm/cpu/armv7/start.o
 .rel.text.usb_composite_register
                0x0000000008066748       0x18 arch/arm/cpu/armv7/start.o
 .rel.text.usb_composite_unregister
                0x0000000008066760       0x10 arch/arm/cpu/armv7/start.o
 .rel.text.g_dnl_set_serialnumber
                0x0000000008066770        0x8 arch/arm/cpu/armv7/start.o
 .rel.text.g_dnl_bind
                0x0000000008066778       0x28 arch/arm/cpu/armv7/start.o
 .rel.text.g_dnl_detach
                0x00000000080667a0        0x8 arch/arm/cpu/armv7/start.o
 .rel.text.g_dnl_trigger_detach
                0x00000000080667a8        0x8 arch/arm/cpu/armv7/start.o
 .rel.text.g_dnl_clear_detach
                0x00000000080667b0        0x8 arch/arm/cpu/armv7/start.o
 .rel.text.g_dnl_register
                0x00000000080667b8       0x18 arch/arm/cpu/armv7/start.o
 .rel.text.g_dnl_unregister
                0x00000000080667d0        0x8 arch/arm/cpu/armv7/start.o
 .rel.text.fsg_setup
                0x00000000080667d8       0x10 arch/arm/cpu/armv7/start.o
 .rel.text.sleep_thread.isra.19
                0x00000000080667e8       0x68 arch/arm/cpu/armv7/start.o
 .rel.text.do_read
                0x0000000008066850       0x18 arch/arm/cpu/armv7/start.o
 .rel.text.do_write
                0x0000000008066868       0x20 arch/arm/cpu/armv7/start.o
 .rel.text.send_status
                0x0000000008066888       0x10 arch/arm/cpu/armv7/start.o
 .rel.text.check_command.isra.20
                0x0000000008066898       0x10 arch/arm/cpu/armv7/start.o
 .rel.text.fsg_add
                0x00000000080668a8       0x70 arch/arm/cpu/armv7/start.o
 .rel.text.do_set_interface
                0x0000000008066918       0x30 arch/arm/cpu/armv7/start.o
 .rel.text.fsg_main_thread
                0x0000000008066948       0x70 arch/arm/cpu/armv7/start.o
 .rel.text.fsg_bind
                0x00000000080669b8       0x38 arch/arm/cpu/armv7/start.o
 .rel.text.fsg_init
                0x00000000080669f0        0x8 arch/arm/cpu/armv7/start.o
 .rel.text.rx_bytes_expected
                0x00000000080669f8       0x10 arch/arm/cpu/armv7/start.o
 .rel.text.fastboot_unbind
                0x0000000008066a08        0x8 arch/arm/cpu/armv7/start.o
 .rel.text.fastboot_add
                0x0000000008066a10       0x40 arch/arm/cpu/armv7/start.o
 .rel.text.fastboot_complete
                0x0000000008066a50        0x8 arch/arm/cpu/armv7/start.o
 .rel.text.do_bootm_on_complete
                0x0000000008066a58       0x20 arch/arm/cpu/armv7/start.o
 .rel.text.fastboot_tx_write_str
                0x0000000008066a78       0x10 arch/arm/cpu/armv7/start.o
 .rel.text.rx_handler_command
                0x0000000008066a88       0x38 arch/arm/cpu/armv7/start.o
 .rel.text.cb_continue
                0x0000000008066ac0       0x18 arch/arm/cpu/armv7/start.o
 .rel.text.cb_boot
                0x0000000008066ad8       0x18 arch/arm/cpu/armv7/start.o
 .rel.text.cb_download
                0x0000000008066af0       0x58 arch/arm/cpu/armv7/start.o
 .rel.text.rx_handler_dl_image
                0x0000000008066b48       0x48 arch/arm/cpu/armv7/start.o
 .rel.text.cb_reboot
                0x0000000008066b90       0x18 arch/arm/cpu/armv7/start.o
 .rel.text.cb_getvar
                0x0000000008066ba8       0x90 arch/arm/cpu/armv7/start.o
 .rel.text.fastboot_bind
                0x0000000008066c38       0x30 arch/arm/cpu/armv7/start.o
 .rel.text.fastboot_set_alt
                0x0000000008066c68       0x50 arch/arm/cpu/armv7/start.o
 .rel.text.cb_oem
                0x0000000008066cb8       0x38 arch/arm/cpu/armv7/start.o
 .rel.text.cb_erase
                0x0000000008066cf0       0x30 arch/arm/cpu/armv7/start.o
 .rel.text.cb_flash
                0x0000000008066d20       0x38 arch/arm/cpu/armv7/start.o
 .rel.rodata.dwc3_gadget_ops
                0x0000000008066d58       0x20 arch/arm/cpu/armv7/start.o
 .rel.rodata.dwc3_gadget_ep0_ops
                0x0000000008066d78       0x30 arch/arm/cpu/armv7/start.o
 .rel.rodata.dwc3_ep_init
                0x0000000008066da8       0x20 arch/arm/cpu/armv7/start.o
 .rel.rodata.dwc3_gadget_ep_ops
                0x0000000008066dc8       0x30 arch/arm/cpu/armv7/start.o
 .rel.rodata.cmd_dispatch_info
                0x0000000008066df8       0x80 arch/arm/cpu/armv7/start.o
 .rel.data.act_dwc3
                0x0000000008066e78       0x10 arch/arm/cpu/armv7/start.o
 .rel.data.g_dnl_string_tab
                0x0000000008066e88        0x8 arch/arm/cpu/armv7/start.o
 .rel.data.g_dnl_composite_strings
                0x0000000008066e90        0x8 arch/arm/cpu/armv7/start.o
 .rel.data.g_dnl_driver
                0x0000000008066e98       0x20 arch/arm/cpu/armv7/start.o
 .rel.data.composite_driver
                0x0000000008066eb8       0x30 arch/arm/cpu/armv7/start.o
 .rel.data.g_dnl_string_defs
                0x0000000008066ee8       0x18 arch/arm/cpu/armv7/start.o
 .rel.data.fsg_stringtab
                0x0000000008066f00        0x8 arch/arm/cpu/armv7/start.o
 .rel.u_boot_list_2_g_dnl_bind_callbacks_2___usb_function_name_usb_dnl_ums
                0x0000000008066f08       0x10 arch/arm/cpu/armv7/start.o
 .rel.data.fsg_strings_array
                0x0000000008066f18        0x8 arch/arm/cpu/armv7/start.o
 .rel.data.fsg_hs_function
                0x0000000008066f20       0x18 arch/arm/cpu/armv7/start.o
 .rel.data.fsg_strings
                0x0000000008066f38        0x8 arch/arm/cpu/armv7/start.o
 .rel.data.fsg_fs_function
                0x0000000008066f40       0x18 arch/arm/cpu/armv7/start.o
 .rel.data.fastboot_string_defs
                0x0000000008066f58        0x8 arch/arm/cpu/armv7/start.o
 .rel.data.fb_runtime_descs
                0x0000000008066f60       0x18 arch/arm/cpu/armv7/start.o
 .rel.data.fastboot_strings
                0x0000000008066f78        0x8 arch/arm/cpu/armv7/start.o
 .rel.data.stringtab_fastboot
                0x0000000008066f80        0x8 arch/arm/cpu/armv7/start.o
 .rel.u_boot_list_2_g_dnl_bind_callbacks_2___usb_function_name_usb_dnl_fastboot
                0x0000000008066f88       0x10 arch/arm/cpu/armv7/start.o
 .rel.text.xhci_configure_endpoints
                0x0000000008066f98       0x38 arch/arm/cpu/armv7/start.o
 .rel.text.xhci_reset
                0x0000000008066fd0        0x8 arch/arm/cpu/armv7/start.o
 .rel.text.usb_alloc_device
                0x0000000008066fd8       0x28 arch/arm/cpu/armv7/start.o
 .rel.text.submit_bulk_msg
                0x0000000008067000        0x8 arch/arm/cpu/armv7/start.o
 .rel.text.submit_control_msg
                0x0000000008067008       0xd0 arch/arm/cpu/armv7/start.o
 .rel.text.usb_lowlevel_init
                0x00000000080670d8       0x28 arch/arm/cpu/armv7/start.o
 .rel.text.usb_lowlevel_stop
                0x0000000008067100        0x8 arch/arm/cpu/armv7/start.o
 .rel.text.xhci_ring_free
                0x0000000008067108       0x20 arch/arm/cpu/armv7/start.o
 .rel.text.xhci_flush_cache
                0x0000000008067128       0x20 arch/arm/cpu/armv7/start.o
 .rel.text.xhci_malloc
                0x0000000008067148       0x20 arch/arm/cpu/armv7/start.o
 .rel.text.xhci_segment_alloc
                0x0000000008067168       0x20 arch/arm/cpu/armv7/start.o
 .rel.text.xhci_alloc_container_ctx.isra.5
                0x0000000008067188       0x20 arch/arm/cpu/armv7/start.o
 .rel.text.xhci_inval_cache
                0x00000000080671a8       0x20 arch/arm/cpu/armv7/start.o
 .rel.text.xhci_ring_alloc
                0x00000000080671c8       0x20 arch/arm/cpu/armv7/start.o
 .rel.text.xhci_alloc_virt_device
                0x00000000080671e8       0x20 arch/arm/cpu/armv7/start.o
 .rel.text.xhci_mem_init
                0x0000000008067208        0x8 arch/arm/cpu/armv7/start.o
 .rel.text.xhci_get_input_control_ctx
                0x0000000008067210       0x20 arch/arm/cpu/armv7/start.o
 .rel.text.xhci_setup_addressable_virt_dev
                0x0000000008067230       0x70 arch/arm/cpu/armv7/start.o
 .rel.text.record_transfer_result
                0x00000000080672a0       0x88 arch/arm/cpu/armv7/start.o
 .rel.text.prepare_ring
                0x0000000008067328       0x48 arch/arm/cpu/armv7/start.o
 .rel.text.xhci_queue_command
                0x0000000008067370       0x20 arch/arm/cpu/armv7/start.o
 .rel.text.xhci_wait_for_event
                0x0000000008067390       0x30 arch/arm/cpu/armv7/start.o
 .rel.text.abort_td
                0x00000000080673c0       0x20 arch/arm/cpu/armv7/start.o
 .rel.text.xhci_bulk_tx
                0x00000000080673e0       0x20 arch/arm/cpu/armv7/start.o
 .rel.text.xhci_ctrl_tx
                0x0000000008067400       0x20 arch/arm/cpu/armv7/start.o
 .rel.text.xhci_hcd_init
                0x0000000008067420       0x28 arch/arm/cpu/armv7/start.o
 .rel.text.xhci_hcd_stop
                0x0000000008067448        0x8 arch/arm/cpu/armv7/start.o
 .rel.text.fs_probe_unsupported
                0x0000000008067450        0x8 arch/arm/cpu/armv7/start.o
 .rel.text.fs_get_info
                0x0000000008067458        0x8 arch/arm/cpu/armv7/start.o
 .rel.text.fs_close
                0x0000000008067460        0x8 arch/arm/cpu/armv7/start.o
 .rel.text.fs_set_blk_dev
                0x0000000008067468       0x28 arch/arm/cpu/armv7/start.o
 .rel.text.fs_uuid
                0x0000000008067490        0x0 arch/arm/cpu/armv7/start.o
 .rel.text.fs_ls
                0x0000000008067490        0x8 arch/arm/cpu/armv7/start.o
 .rel.text.fs_exists
                0x0000000008067498        0x8 arch/arm/cpu/armv7/start.o
 .rel.text.fs_size
                0x00000000080674a0        0x8 arch/arm/cpu/armv7/start.o
 .rel.text.fs_read
                0x00000000080674a8       0x10 arch/arm/cpu/armv7/start.o
 .rel.text.fs_write
                0x00000000080674b8       0x10 arch/arm/cpu/armv7/start.o
 .rel.text.do_size
                0x00000000080674c8        0x8 arch/arm/cpu/armv7/start.o
 .rel.text.do_load
                0x00000000080674d0       0x48 arch/arm/cpu/armv7/start.o
 .rel.text.do_ls
                0x0000000008067518        0x8 arch/arm/cpu/armv7/start.o
 .rel.text.do_save
                0x0000000008067520       0x28 arch/arm/cpu/armv7/start.o
 .rel.text.do_fs_uuid
                0x0000000008067548        0x0 arch/arm/cpu/armv7/start.o
 .rel.text.do_fs_type
                0x0000000008067548       0x10 arch/arm/cpu/armv7/start.o
 .rel.text.get_fs
                0x0000000008067558        0x8 arch/arm/cpu/armv7/start.o
 .rel.text.ext4fs_free_node
                0x0000000008067560        0x8 arch/arm/cpu/armv7/start.o
 .rel.text.ext4fs_read_file
                0x0000000008067568        0x8 arch/arm/cpu/armv7/start.o
 .rel.text.ext4fs_ls
                0x0000000008067570       0x10 arch/arm/cpu/armv7/start.o
 .rel.text.ext4fs_read
                0x0000000008067580       0x10 arch/arm/cpu/armv7/start.o
 .rel.text.ext4_read_file
                0x0000000008067590       0x10 arch/arm/cpu/armv7/start.o
 .rel.text.ext4fs_uuid
                0x00000000080675a0        0x8 arch/arm/cpu/armv7/start.o
 .rel.text.read_allocated_block
                0x00000000080675a8       0xb8 arch/arm/cpu/armv7/start.o
 .rel.text.ext4fs_reinit_global
                0x0000000008067660       0x48 arch/arm/cpu/armv7/start.o
 .rel.text.ext4fs_close
                0x00000000080676a8       0x10 arch/arm/cpu/armv7/start.o
 .rel.text.ext4fs_iterate_dir
                0x00000000080676b8       0x28 arch/arm/cpu/armv7/start.o
 .rel.text.ext4fs_find_file1
                0x00000000080676e0       0x10 arch/arm/cpu/armv7/start.o
 .rel.text.ext4fs_find_file
                0x00000000080676f0        0x8 arch/arm/cpu/armv7/start.o
 .rel.text.ext4fs_open
                0x00000000080676f8       0x10 arch/arm/cpu/armv7/start.o
 .rel.text.ext4fs_mount
                0x0000000008067708       0x10 arch/arm/cpu/armv7/start.o
 .rel.text.ext4fs_set_blk_dev
                0x0000000008067718       0x18 arch/arm/cpu/armv7/start.o
 .rel.text.ext4fs_devread
                0x0000000008067730       0x38 arch/arm/cpu/armv7/start.o
 .rel.text.downcase
                0x0000000008067768        0x8 arch/arm/cpu/armv7/start.o
 .rel.text.disk_read
                0x0000000008067770       0x10 arch/arm/cpu/armv7/start.o
 .rel.text.disk_write
                0x0000000008067780       0x20 arch/arm/cpu/armv7/start.o
 .rel.text.flush_fat_buffer
                0x00000000080677a0        0x8 arch/arm/cpu/armv7/start.o
 .rel.text.get_fatent_value
                0x00000000080677a8        0x8 arch/arm/cpu/armv7/start.o
 .rel.text.get_cluster
                0x00000000080677b0        0x8 arch/arm/cpu/armv7/start.o
 .rel.text.read_bootsectandvi
                0x00000000080677b8       0x20 arch/arm/cpu/armv7/start.o
 .rel.text.set_name
                0x00000000080677d8        0x8 arch/arm/cpu/armv7/start.o
 .rel.text.check_overflow
                0x00000000080677e0       0x10 arch/arm/cpu/armv7/start.o
 .rel.text.get_vfatname
                0x00000000080677f0       0x10 arch/arm/cpu/armv7/start.o
 .rel.text.flush_dir_table.constprop.7
                0x0000000008067800       0x20 arch/arm/cpu/armv7/start.o
 .rel.text.do_fat_write
                0x0000000008067820       0x80 arch/arm/cpu/armv7/start.o
 .rel.text.fat_set_blk_dev
                0x00000000080678a0       0x28 arch/arm/cpu/armv7/start.o
 .rel.text.fat_register_device
                0x00000000080678c8       0x10 arch/arm/cpu/armv7/start.o
 .rel.text.do_fat_read_at
                0x00000000080678d8       0x58 arch/arm/cpu/armv7/start.o
 .rel.text.file_fat_detectfs
                0x0000000008067930       0xb0 arch/arm/cpu/armv7/start.o
 .rel.text.file_fat_read_at
                0x00000000080679e0        0x8 arch/arm/cpu/armv7/start.o
 .rel.text.fat_read_file
                0x00000000080679e8        0x8 arch/arm/cpu/armv7/start.o
 .rel.text.file_fat_write
                0x00000000080679f0       0x10 arch/arm/cpu/armv7/start.o
 .rel.text.file_getfsname
                0x0000000008067a00        0x0 arch/arm/cpu/armv7/start.o
 .rel.text.file_cd
                0x0000000008067a00        0x0 arch/arm/cpu/armv7/start.o
 .rel.text.file_detectfs
                0x0000000008067a00        0x0 arch/arm/cpu/armv7/start.o
 .rel.text.file_ls
                0x0000000008067a00        0x0 arch/arm/cpu/armv7/start.o
 .rel.text.file_read
                0x0000000008067a00        0x0 arch/arm/cpu/armv7/start.o
 .rel.rodata.filesystems
                0x0000000008067a00        0x0 arch/arm/cpu/armv7/start.o
 .rel.data.fstypes
                0x0000000008067a00       0xd8 arch/arm/cpu/armv7/start.o
 .rel.text.inflate_fast
                0x0000000008067ad8       0x18 arch/arm/cpu/armv7/start.o
 .rel.text.inflate_table
                0x0000000008067af0       0x20 arch/arm/cpu/armv7/start.o
 .rel.text.inflateInit2_
                0x0000000008067b10       0x10 arch/arm/cpu/armv7/start.o
 .rel.text.inflate
                0x0000000008067b20      0x188 arch/arm/cpu/armv7/start.o
 .rel.text.fdt_next_tag
                0x0000000008067ca8       0x48 arch/arm/cpu/armv7/start.o
 .rel.text.fdt_get_phandle
                0x0000000008067cf0       0x10 arch/arm/cpu/armv7/start.o
 .rel.text.fdt_get_alias_namelen
                0x0000000008067d00        0x8 arch/arm/cpu/armv7/start.o
 .rel.text.fdt_node_check_compatible
                0x0000000008067d08        0x8 arch/arm/cpu/armv7/start.o
 .rel.text.fdt_strerror
                0x0000000008067d10       0x20 arch/arm/cpu/armv7/start.o
 .rel.text.fdt_find_regions
                0x0000000008067d30        0x0 arch/arm/cpu/armv7/start.o
 .rel.text.fdt_create_empty_tree
                0x0000000008067d30        0x0 arch/arm/cpu/armv7/start.o
 .rel.text.fdt_address_cells
                0x0000000008067d30        0x8 arch/arm/cpu/armv7/start.o
 .rel.text.fdt_size_cells
                0x0000000008067d38        0x8 arch/arm/cpu/armv7/start.o
 .rel.text.crc7
                0x0000000008067d40        0x0 arch/arm/cpu/armv7/start.o
 .rel.text.cyg_crc16
                0x0000000008067d40        0x0 arch/arm/cpu/armv7/start.o
 .rel.text.fdtdec_get_compatible
                0x0000000008067d40        0x0 arch/arm/cpu/armv7/start.o
 .rel.text.fdtdec_get_is_enabled
                0x0000000008067d40       0x10 arch/arm/cpu/armv7/start.o
 .rel.text.fdtdec_lookup
                0x0000000008067d50        0x0 arch/arm/cpu/armv7/start.o
 .rel.text.fdtdec_next_compatible
                0x0000000008067d50        0x8 arch/arm/cpu/armv7/start.o
 .rel.text.fdtdec_next_compatible_subnode
                0x0000000008067d58        0x0 arch/arm/cpu/armv7/start.o
 .rel.text.fdtdec_next_alias
                0x0000000008067d58        0x0 arch/arm/cpu/armv7/start.o
 .rel.text.fdtdec_add_aliases_for_id
                0x0000000008067d58        0x8 arch/arm/cpu/armv7/start.o
 .rel.text.fdtdec_get_alias_seq
                0x0000000008067d60        0x0 arch/arm/cpu/armv7/start.o
 .rel.text.fdtdec_get_chosen_node
                0x0000000008067d60        0x0 arch/arm/cpu/armv7/start.o
 .rel.text.fdtdec_prepare_fdt
                0x0000000008067d60        0x8 arch/arm/cpu/armv7/start.o
 .rel.text.fdtdec_get_config_int
                0x0000000008067d68        0x8 arch/arm/cpu/armv7/start.o
 .rel.text.fdtdec_get_config_bool
                0x0000000008067d70        0x0 arch/arm/cpu/armv7/start.o
 .rel.text.fdtdec_get_config_string
                0x0000000008067d70        0x8 arch/arm/cpu/armv7/start.o
 .rel.text.fdtdec_read_fmap_entry
                0x0000000008067d78        0x0 arch/arm/cpu/armv7/start.o
 .rel.text.fdtdec_decode_memory_region
                0x0000000008067d78        0x0 arch/arm/cpu/armv7/start.o
 .rel.text.zunzip
                0x0000000008067d78       0x28 arch/arm/cpu/armv7/start.o
 .rel.text.gunzip
                0x0000000008067da0       0x10 arch/arm/cpu/armv7/start.o
 .rel.text.initcall_run_list
                0x0000000008067db0        0x8 arch/arm/cpu/armv7/start.o
 .rel.text.lmb_alloc_base
                0x0000000008067db8        0x8 arch/arm/cpu/armv7/start.o
 .rel.text.sha1_finish
                0x0000000008067dc0        0x8 arch/arm/cpu/armv7/start.o
 .rel.text.sha256_finish
                0x0000000008067dc8        0x8 arch/arm/cpu/armv7/start.o
 .rel.text.strmhz
                0x0000000008067dd0        0x0 arch/arm/cpu/armv7/start.o
 .rel.text.list_sort
                0x0000000008067dd0        0x0 arch/arm/cpu/armv7/start.o
 .rel.text.match_string.isra.3
                0x0000000008067dd0        0x8 arch/arm/cpu/armv7/start.o
 .rel.text.hcreate_r
                0x0000000008067dd8        0x8 arch/arm/cpu/armv7/start.o
 .rel.text.hdestroy_r
                0x0000000008067de0        0x8 arch/arm/cpu/armv7/start.o
 .rel.text.hmatch_r
                0x0000000008067de8        0x0 arch/arm/cpu/armv7/start.o
 .rel.text.hsearch_r
                0x0000000008067de8        0x8 arch/arm/cpu/armv7/start.o
 .rel.text.hdelete_r
                0x0000000008067df0        0x8 arch/arm/cpu/armv7/start.o
 .rel.text.hexport_r
                0x0000000008067df8       0x18 arch/arm/cpu/armv7/start.o
 .rel.text.himport_r
                0x0000000008067e10       0x20 arch/arm/cpu/armv7/start.o
 .rel.text.display_options
                0x0000000008067e30       0x10 arch/arm/cpu/armv7/start.o
 .rel.text.print_size
                0x0000000008067e40       0x28 arch/arm/cpu/armv7/start.o
 .rel.text.print_buffer
                0x0000000008067e68       0x28 arch/arm/cpu/armv7/start.o
 .rel.text.crc32_no_comp
                0x0000000008067e90        0x8 arch/arm/cpu/armv7/start.o
 .rel.text.hang
                0x0000000008067e98        0x8 arch/arm/cpu/armv7/start.o
 .rel.text.skip_spaces
                0x0000000008067ea0        0x8 arch/arm/cpu/armv7/start.o
 .rel.text.strim
                0x0000000008067ea8        0x8 arch/arm/cpu/armv7/start.o
 .rel.text.strncasecmp
                0x0000000008067eb0        0x0 arch/arm/cpu/armv7/start.o
 .rel.text.strtok
                0x0000000008067eb0        0x0 arch/arm/cpu/armv7/start.o
 .rel.text.uuid_str_valid
                0x0000000008067eb0        0x0 arch/arm/cpu/armv7/start.o
 .rel.text.uuid_bin_to_str
                0x0000000008067eb0       0x18 arch/arm/cpu/armv7/start.o
 .rel.text.string
                0x0000000008067ec8        0x8 arch/arm/cpu/armv7/start.o
 .rel.text.number
                0x0000000008067ed0        0x8 arch/arm/cpu/armv7/start.o
 .rel.text.vsnprintf_internal
                0x0000000008067ed8       0x10 arch/arm/cpu/armv7/start.o
 .rel.text.simple_strtoul
                0x0000000008067ee8        0x8 arch/arm/cpu/armv7/start.o
 .rel.text.simple_strtoull
                0x0000000008067ef0        0x8 arch/arm/cpu/armv7/start.o
 .rel.text.__assert_fail
                0x0000000008067ef8        0x0 arch/arm/cpu/armv7/start.o
 .rel.text.simple_itoa
                0x0000000008067ef8        0x8 arch/arm/cpu/armv7/start.o
 .rel.text.print_grouped_ull
                0x0000000008067f00        0x0 arch/arm/cpu/armv7/start.o
 .rel.text.rand
                0x0000000008067f00        0x0 arch/arm/cpu/armv7/start.o
 .rel.text.srand
                0x0000000008067f00        0x0 arch/arm/cpu/armv7/start.o
 .rel.rodata.z_errmsg
                0x0000000008067f00        0x0 arch/arm/cpu/armv7/start.o
 .rel.rodata.fdt_errtable
                0x0000000008067f00       0x58 arch/arm/cpu/armv7/start.o
 .rel.rodata.compat_names
                0x0000000008067f58      0x230 arch/arm/cpu/armv7/start.o
 .rel.data.current
                0x0000000008068188        0x0 arch/arm/cpu/armv7/start.o
 .rel.text.ArpInit
                0x0000000008068188       0x30 arch/arm/cpu/armv7/start.o
 .rel.text.arp_raw_request
                0x00000000080681b8       0x18 arch/arm/cpu/armv7/start.o
 .rel.text.ArpRequest
                0x00000000080681d0       0x38 arch/arm/cpu/armv7/start.o
 .rel.text.ArpTimeoutCheck
                0x0000000008068208       0x20 arch/arm/cpu/armv7/start.o
 .rel.text.ArpReceive
                0x0000000008068228       0x40 arch/arm/cpu/armv7/start.o
 .rel.text.BootpHandler
                0x0000000008068268       0x98 arch/arm/cpu/armv7/start.o
 .rel.text.BootpReset
                0x0000000008068300       0x20 arch/arm/cpu/armv7/start.o
 .rel.text.BootpRequest
                0x0000000008068320       0x58 arch/arm/cpu/armv7/start.o
 .rel.text.BootpTimeout
                0x0000000008068378       0x20 arch/arm/cpu/armv7/start.o
 .rel.text.eth_current_changed
                0x0000000008068398       0x10 arch/arm/cpu/armv7/start.o
 .rel.text.eth_setenv_enetaddr
                0x00000000080683a8        0x8 arch/arm/cpu/armv7/start.o
 .rel.text.eth_getenv_enetaddr_by_index
                0x00000000080683b0       0x10 arch/arm/cpu/armv7/start.o
 .rel.text.eth_get_dev_by_name
                0x00000000080683c0        0x0 arch/arm/cpu/armv7/start.o
 .rel.text.eth_get_dev_by_index
                0x00000000080683c0        0x0 arch/arm/cpu/armv7/start.o
 .rel.text.eth_get_dev_index
                0x00000000080683c0        0x8 arch/arm/cpu/armv7/start.o
 .rel.text.eth_write_hwaddr
                0x00000000080683c8       0x60 arch/arm/cpu/armv7/start.o
 .rel.text.eth_register
                0x0000000008068428       0x18 arch/arm/cpu/armv7/start.o
 .rel.text.eth_unregister
                0x0000000008068440        0x0 arch/arm/cpu/armv7/start.o
 .rel.text.eth_initialize
                0x0000000008068440       0x88 arch/arm/cpu/armv7/start.o
 .rel.text.eth_halt
                0x00000000080684c8        0x8 arch/arm/cpu/armv7/start.o
 .rel.text.eth_send
                0x00000000080684d0        0x8 arch/arm/cpu/armv7/start.o
 .rel.text.eth_rx
                0x00000000080684d8        0x8 arch/arm/cpu/armv7/start.o
 .rel.text.eth_try_another
                0x00000000080684e0       0x28 arch/arm/cpu/armv7/start.o
 .rel.text.eth_init
                0x0000000008068508       0x20 arch/arm/cpu/armv7/start.o
 .rel.text.eth_set_current
                0x0000000008068528       0x20 arch/arm/cpu/armv7/start.o
 .rel.text.eth_get_name
                0x0000000008068548       0x10 arch/arm/cpu/armv7/start.o
 .rel.text.startAgainTimeout
                0x0000000008068558        0x8 arch/arm/cpu/armv7/start.o
 .rel.text.net_clear_handlers
                0x0000000008068560       0x20 arch/arm/cpu/armv7/start.o
 .rel.text.net_auto_load
                0x0000000008068580       0x10 arch/arm/cpu/armv7/start.o
 .rel.text.NetStartAgain
                0x0000000008068590       0x78 arch/arm/cpu/armv7/start.o
 .rel.text.net_get_udp_handler
                0x0000000008068608        0x0 arch/arm/cpu/armv7/start.o
 .rel.text.net_set_udp_handler
                0x0000000008068608       0x10 arch/arm/cpu/armv7/start.o
 .rel.text.net_get_arp_handler
                0x0000000008068618        0x8 arch/arm/cpu/armv7/start.o
 .rel.text.net_set_arp_handler
                0x0000000008068620        0x0 arch/arm/cpu/armv7/start.o
 .rel.text.NetSetTimeout
                0x0000000008068620       0x18 arch/arm/cpu/armv7/start.o
 .rel.text.NetReceive
                0x0000000008068638       0x38 arch/arm/cpu/armv7/start.o
 .rel.text.NetEthHdrSize
                0x0000000008068670        0x8 arch/arm/cpu/armv7/start.o
 .rel.text.NetSetEther
                0x0000000008068678       0x10 arch/arm/cpu/armv7/start.o
 .rel.text.net_update_ether
                0x0000000008068688        0x8 arch/arm/cpu/armv7/start.o
 .rel.text.net_set_ip_header
                0x0000000008068690        0x8 arch/arm/cpu/armv7/start.o
 .rel.text.net_set_udp_header
                0x0000000008068698        0x8 arch/arm/cpu/armv7/start.o
 .rel.text.NetSendUDPPacket
                0x00000000080686a0       0x40 arch/arm/cpu/armv7/start.o
 .rel.text.on_bootfile
                0x00000000080686e0        0x8 arch/arm/cpu/armv7/start.o
 .rel.text.ip_to_string
                0x00000000080686e8        0x8 arch/arm/cpu/armv7/start.o
 .rel.text.VLAN_to_string
                0x00000000080686f0        0x0 arch/arm/cpu/armv7/start.o
 .rel.text.NetInitLoop
                0x00000000080686f0       0x78 arch/arm/cpu/armv7/start.o
 .rel.text.net_init
                0x0000000008068768       0x20 arch/arm/cpu/armv7/start.o
 .rel.text.NetLoop
                0x0000000008068788      0x140 arch/arm/cpu/armv7/start.o
 .rel.text.ping_timeout
                0x00000000080688c8        0x8 arch/arm/cpu/armv7/start.o
 .rel.text.ping_start
                0x00000000080688d0       0x58 arch/arm/cpu/armv7/start.o
 .rel.text.ping_receive
                0x0000000008068928       0x18 arch/arm/cpu/armv7/start.o
 .rel.text.TftpSend
                0x0000000008068940       0xb8 arch/arm/cpu/armv7/start.o
 .rel.text.TftpHandler
                0x00000000080689f8       0xc0 arch/arm/cpu/armv7/start.o
 .rel.text.TftpTimeout
                0x0000000008068ab8       0x40 arch/arm/cpu/armv7/start.o
 .rel.text.TftpStart
                0x0000000008068af8      0x130 arch/arm/cpu/armv7/start.o
 .rel.u_boot_list_2_env_clbk_2_bootfile
                0x0000000008068c28       0x10 arch/arm/cpu/armv7/start.o
 .rel.text.raise
                0x0000000008068c38        0x8 arch/arm/cpu/armv7/start.o

.rel_dyn_end    0x0000000008068c40        0x0
 *(.__rel_dyn_end)
 .__rel_dyn_end
                0x0000000008068c40        0x0 arch/arm/lib/built-in.o

.end            0x0000000008068c40        0x0
 *(.__end)
 .__end         0x0000000008068c40        0x0 arch/arm/lib/built-in.o
                0x0000000008068c40                _image_binary_end = .
                0x0000000008069000                . = ALIGN (0x1000)

.mmutable
 *(.mmutable)

.bss_start      0x000000000805e3e0        0x0
 *(.__bss_start)
 .__bss_start   0x000000000805e3e0        0x0 arch/arm/lib/built-in.o
                0x000000000805e3e0                __bss_start
                0x000000000805e3e0                __bss_base = .

.bss            0x000000000805e3e0    0x47e98
 *(.bss*)
 .bss.pmu_config
                0x000000000805e3e0       0x80 arch/arm/cpu/armv7/built-in.o
                0x000000000805e3e0                pmu_config
 .bss.s2_resume
                0x000000000805e460        0x4 arch/arm/cpu/armv7/built-in.o
                0x000000000805e460                s2_resume
 .bss.board_config
                0x000000000805e464        0x4 arch/arm/cpu/armv7/built-in.o
                0x000000000805e464                board_config
 .bss.pmu_type  0x000000000805e468        0x4 arch/arm/cpu/armv7/built-in.o
                0x000000000805e468                pmu_type
 .bss.alarm_wakeup
                0x000000000805e46c        0x4 arch/arm/cpu/armv7/built-in.o
                0x000000000805e46c                alarm_wakeup
 .bss.cpu_resume_fn
                0x000000000805e470        0x4 arch/arm/cpu/armv7/built-in.o
                0x000000000805e470                cpu_resume_fn
 .bss.irq_handler
                0x000000000805e474      0x150 arch/arm/cpu/armv7/built-in.o
 .bss.pwm_chip  0x000000000805e5c4        0x4 arch/arm/cpu/armv7/built-in.o
                0x000000000805e5c4                pwm_chip
 .bss.info.8523
                0x000000000805e5c8       0x78 board/actions/owl/built-in.o
 .bss.flag_repeat
                0x000000000805e640        0x4 common/built-in.o
 .bss.the_command.7627
                0x000000000805e644      0x201 common/built-in.o
 .bss.buf.7827  0x000000000805e845       0x28 common/built-in.o
 *fill*         0x000000000805e86d        0x3 
 .bss.ifs       0x000000000805e870        0x4 common/built-in.o
 .bss.last_return_code
                0x000000000805e874        0x4 common/built-in.o
 .bss.map       0x000000000805e878      0x100 common/built-in.o
 .bss.do_repeat
                0x000000000805e978        0x4 common/built-in.o
 .bss.top_vars  0x000000000805e97c        0x4 common/built-in.o
 .bss.stored_bootdelay
                0x000000000805e980        0x4 common/built-in.o
 .bss.monitor_flash_len
                0x000000000805e984        0x4 common/built-in.o
                0x000000000805e984                monitor_flash_len
 .bss.images    0x000000000805e988      0x164 common/built-in.o
                0x000000000805e988                images
 .bss.callback_list
                0x000000000805eaec        0x4 common/built-in.o
 .bss.flags_list
                0x000000000805eaf0        0x4 common/built-in.o
 .bss.env_ptr   0x000000000805eaf4        0x4 common/built-in.o
                0x000000000805eaf4                env_ptr
 .bss.env_flags
                0x000000000805eaf8        0x1 common/built-in.o
 .bss.data.7507
                0x000000000805eaf9      0x400 common/built-in.o
 *fill*         0x000000000805eef9        0x3 
 .bss.working_fdt
                0x000000000805eefc        0x4 common/built-in.o
                0x000000000805eefc                working_fdt
 .bss.dp_last_addr
                0x000000000805ef00        0x4 common/built-in.o
 .bss.base_address
                0x000000000805ef04        0x4 common/built-in.o
 .bss.mm_last_size
                0x000000000805ef08        0x4 common/built-in.o
 .bss.mm_last_addr
                0x000000000805ef0c        0x4 common/built-in.o
 .bss.dp_last_size
                0x000000000805ef10        0x4 common/built-in.o
 .bss.dev_index
                0x000000000805ef14        0x4 common/built-in.o
 *fill*         0x000000000805ef18       0x28 
 .bss.usb_dev   0x000000000805ef40    0x13000 common/built-in.o
 .bss.asynch_allowed
                0x0000000008071f40        0x4 common/built-in.o
 .bss.usb_started
                0x0000000008071f44        0x1 common/built-in.o
                0x0000000008071f44                usb_started
 *fill*         0x0000000008071f45        0x3 
 .bss.usb_hub_index
                0x0000000008071f48        0x4 common/built-in.o
 .bss.hub_dev   0x0000000008071f4c      0x100 common/built-in.o
 .bss.usb_stor  0x000000000807204c      0x104 common/built-in.o
 .bss.usb_dev_desc
                0x0000000008072150      0x244 common/built-in.o
 .bss.usb_max_devs
                0x0000000008072394        0x4 common/built-in.o
 .bss.CBWTag    0x0000000008072398        0x4 common/built-in.o
 *fill*         0x000000000807239c       0x24 
 .bss.usb_ccb   0x00000000080723c0       0xc0 common/built-in.o
 .bss.ctrlc_was_pressed
                0x0000000008072480        0x4 common/built-in.o
 .bss.cd_count  0x0000000008072484        0xc common/built-in.o
                0x0000000008072484                cd_count
 .bss.tstcdev   0x0000000008072490        0x4 common/built-in.o
 .bss.ctrlc_disabled
                0x0000000008072494        0x4 common/built-in.o
 .bss.console_devices
                0x0000000008072498        0xc common/built-in.o
                0x0000000008072498                console_devices
 .bss.max_total_mem
                0x00000000080724a4        0x4 common/built-in.o
 .bss.mem_malloc_brk
                0x00000000080724a8        0x4 common/built-in.o
                0x00000000080724a8                mem_malloc_brk
 .bss.max_sbrked_mem
                0x00000000080724ac        0x4 common/built-in.o
 .bss.current_mallinfo
                0x00000000080724b0       0x28 common/built-in.o
 .bss.mem_malloc_end
                0x00000000080724d8        0x4 common/built-in.o
                0x00000000080724d8                mem_malloc_end
 .bss.top_pad   0x00000000080724dc        0x4 common/built-in.o
 .bss.mem_malloc_start
                0x00000000080724e0        0x4 common/built-in.o
                0x00000000080724e0                mem_malloc_start
 .bss.andr_tmp_str
                0x00000000080724e4      0x201 common/built-in.o
 *fill*         0x00000000080726e5        0x3 
 .bss.devs      0x00000000080726e8       0x4c common/built-in.o
 .bss.stdio_devices
                0x0000000008072734        0xc common/built-in.o
                0x0000000008072734                stdio_devices
 .bss.response_str
                0x0000000008072740        0x4 common/built-in.o
 .bss.console_buffer
                0x0000000008072744      0x201 common/built-in.o
                0x0000000008072744                console_buffer
 .bss.name.7495
                0x0000000008072945       0x25 disk/built-in.o
 *fill*         0x000000000807296a        0x2 
 .bss.video_console_address
                0x000000000807296c        0x4 drivers/built-in.o
 .bss.bgx       0x0000000008072970        0x4 drivers/built-in.o
 .bss.video_logo_xpos
                0x0000000008072974        0x4 drivers/built-in.o
 .bss.video_logo_ypos
                0x0000000008072978        0x4 drivers/built-in.o
 .bss.eorx      0x000000000807297c        0x4 drivers/built-in.o
 .bss.fgx       0x0000000008072980        0x4 drivers/built-in.o
 .bss.pGD       0x0000000008072984        0x4 drivers/built-in.o
 .bss.cfb_do_flush_cache
                0x0000000008072988        0x4 drivers/built-in.o
 .bss.console_row
                0x000000000807298c        0x4 drivers/built-in.o
 .bss.video_fb_address
                0x0000000008072990        0x4 drivers/built-in.o
 .bss.console_col
                0x0000000008072994        0x4 drivers/built-in.o
 .bss.ctfb.9307
                0x0000000008072998       0x90 drivers/built-in.o
 .bss.display_list
                0x0000000008072a28       0x90 drivers/built-in.o
 .bss.kinfo     0x0000000008072ab8        0x4 drivers/built-in.o
                0x0000000008072ab8                kinfo
 .bss.dss       0x0000000008072abc       0x38 drivers/built-in.o
 .bss.registered_display_ids
                0x0000000008072af4        0x4 drivers/built-in.o
 .bss.def_display
                0x0000000008072af8        0x4 drivers/built-in.o
 .bss.lcd_par   0x0000000008072afc       0x88 drivers/built-in.o
 .bss.dsi_addr  0x0000000008072b84        0xc drivers/built-in.o
                0x0000000008072b84                dsi_addr
 .bss.dsi_par   0x0000000008072b90       0x90 drivers/built-in.o
 .bss.pkt.9316  0x0000000008072c20       0x20 drivers/built-in.o
 .bss.pkt.9276  0x0000000008072c40       0x20 drivers/built-in.o
 .bss.pkt.9289  0x0000000008072c60       0x20 drivers/built-in.o
 .bss.pkt.9302  0x0000000008072c80       0x20 drivers/built-in.o
 .bss.ibus      0x0000000008072ca0        0x4 drivers/built-in.o
 .bss.edid      0x0000000008072ca4      0x618 drivers/built-in.o
                0x0000000008072ca4                edid
 .bss.cvbs_display_mode
                0x00000000080732bc       0x3c drivers/built-in.o
                0x00000000080732bc                cvbs_display_mode
 .bss.info.9285
                0x00000000080732f8       0x78 drivers/built-in.o
 .bss.pwm_bl    0x0000000008073370       0x34 drivers/built-in.o
                0x0000000008073370                pwm_bl
 .bss.adc_channel
                0x00000000080733a4        0x4 drivers/built-in.o
 .bss.master_ic_chip
                0x00000000080733a8        0x4 drivers/gpio/built-in.o
                0x00000000080733a8                master_ic_chip
 .bss.chip_list
                0x00000000080733ac       0x18 drivers/gpio/built-in.o
                0x00000000080733ac                chip_list
 .bss.mmc_devices
                0x00000000080733c4        0x8 drivers/mmc/built-in.o
 .bss.mmc_host  0x00000000080733cc       0x78 drivers/mmc/built-in.o
                0x00000000080733cc                mmc_host
 .bss.power_cfg_items
                0x0000000008073444        0xc drivers/power/built-in.o
                0x0000000008073444                power_cfg_items
 .bss.serial_devices
                0x0000000008073450        0x4 drivers/serial/built-in.o
 .bss.serial_current
                0x0000000008073454        0x4 drivers/serial/built-in.o
 .bss.cur_uart_dev
                0x0000000008073458        0x4 drivers/serial/built-in.o
 .bss.epnum     0x000000000807345c        0x4 drivers/usb/gadget/built-in.o
 .bss.no_delay_status
                0x0000000008073460        0x4 drivers/usb/gadget/built-in.o
 .bss.g_dnl_detach_request
                0x0000000008073464        0x1 drivers/usb/gadget/built-in.o
 .bss.g_dnl_serial
                0x0000000008073465       0x20 drivers/usb/gadget/built-in.o
 *fill*         0x0000000008073485        0x3 
 .bss.composite
                0x0000000008073488        0x4 drivers/usb/gadget/built-in.o
 .bss.state.8464
                0x000000000807348c        0x4 drivers/usb/gadget/built-in.o
 .bss.ums       0x0000000008073490        0x4 drivers/usb/gadget/built-in.o
                0x0000000008073490                ums
 .bss.unknown.8720
                0x0000000008073494       0x10 drivers/usb/gadget/built-in.o
 .bss.the_fsg_common
                0x00000000080734a4        0x4 drivers/usb/gadget/built-in.o
                0x00000000080734a4                the_fsg_common
 .bss.is_high_speed
                0x00000000080734a8        0x1 drivers/usb/gadget/built-in.o
 *fill*         0x00000000080734a9        0x3 
 .bss.download_bytes
                0x00000000080734ac        0x4 drivers/usb/gadget/built-in.o
 .bss.fastboot_func
                0x00000000080734b0        0x4 drivers/usb/gadget/built-in.o
 .bss.download_size
                0x00000000080734b4        0x4 drivers/usb/gadget/built-in.o
 *fill*         0x00000000080734b8        0x8 
 .bss.xhcic     0x00000000080734c0      0x4c0 drivers/usb/host/built-in.o
 .bss.owl       0x0000000008073980       0x18 drivers/usb/host/built-in.o
 .bss.fs_partition
                0x0000000008073998       0x78 fs/built-in.o
 .bss.fs_type   0x0000000008073a10        0x4 fs/built-in.o
 .bss.fs_dev_desc
                0x0000000008073a14        0x4 fs/built-in.o
 .bss.ext_fs    0x0000000008073a18       0x48 fs/built-in.o
                0x0000000008073a18                ext_fs
 .bss.ext4fs_indir3_block
                0x0000000008073a60        0x4 fs/built-in.o
                0x0000000008073a60                ext4fs_indir3_block
 .bss.ext4fs_root
                0x0000000008073a64        0x4 fs/built-in.o
                0x0000000008073a64                ext4fs_root
 .bss.ext4fs_indir3_size
                0x0000000008073a68        0x4 fs/built-in.o
                0x0000000008073a68                ext4fs_indir3_size
 .bss.ext4fs_indir1_block
                0x0000000008073a6c        0x4 fs/built-in.o
                0x0000000008073a6c                ext4fs_indir1_block
 .bss.ext4fs_indir2_size
                0x0000000008073a70        0x4 fs/built-in.o
                0x0000000008073a70                ext4fs_indir2_size
 .bss.ext4fs_indir2_block
                0x0000000008073a74        0x4 fs/built-in.o
                0x0000000008073a74                ext4fs_indir2_block
 .bss.ext4fs_indir1_size
                0x0000000008073a78        0x4 fs/built-in.o
                0x0000000008073a78                ext4fs_indir1_size
 .bss.symlinknest
                0x0000000008073a7c        0x4 fs/built-in.o
 .bss.ext4fs_file
                0x0000000008073a80        0x4 fs/built-in.o
                0x0000000008073a80                ext4fs_file
 .bss.part_info
                0x0000000008073a84        0x4 fs/built-in.o
 .bss.ext4fs_block_dev_desc
                0x0000000008073a88        0x4 fs/built-in.o
 .bss.part_offset
                0x0000000008073a8c        0x4 fs/built-in.o
                0x0000000008073a8c                part_offset
 *fill*         0x0000000008073a90       0x30 
 .bss.get_contents_vfatname_block
                0x0000000008073ac0    0x10000 fs/built-in.o
                0x0000000008073ac0                get_contents_vfatname_block
 .bss.do_fat_read_at_block
                0x0000000008083ac0    0x10000 fs/built-in.o
                0x0000000008083ac0                do_fat_read_at_block
 .bss.get_dentfromdir_block
                0x0000000008093ac0    0x10000 fs/built-in.o
                0x0000000008093ac0                get_dentfromdir_block
 .bss.empty_dentptr
                0x00000000080a3ac0        0x4 fs/built-in.o
 .bss.cur_part_info
                0x00000000080a3ac4       0x78 fs/built-in.o
 .bss.total_sector
                0x00000000080a3b3c        0x4 fs/built-in.o
 .bss.dir_curclust
                0x00000000080a3b40        0x4 fs/built-in.o
 .bss.num_of_fats
                0x00000000080a3b44        0x1 fs/built-in.o
 *fill*         0x00000000080a3b45        0x3 
 .bss.cur_dev   0x00000000080a3b48        0x4 fs/built-in.o
 .bss.errno     0x00000000080a3b4c        0x4 lib/built-in.o
                0x00000000080a3b4c                errno
 .bss.local.7645
                0x00000000080a3b50       0x16 lib/built-in.o
 *fill*         0x00000000080a3b66        0x2 
 .bss.NetArpWaitPacketIP
                0x00000000080a3b68        0x4 net/built-in.o
                0x00000000080a3b68                NetArpWaitPacketIP
 .bss.NetArpWaitTimerStart
                0x00000000080a3b6c        0x4 net/built-in.o
                0x00000000080a3b6c                NetArpWaitTimerStart
 .bss.NetArpWaitReplyIP
                0x00000000080a3b70        0x4 net/built-in.o
 .bss.NetArpWaitTxPacketSize
                0x00000000080a3b74        0x4 net/built-in.o
                0x00000000080a3b74                NetArpWaitTxPacketSize
 .bss.NetArpWaitTry
                0x00000000080a3b78        0x4 net/built-in.o
                0x00000000080a3b78                NetArpWaitTry
 .bss.NetArpTxPacket
                0x00000000080a3b7c        0x4 net/built-in.o
 .bss.NetArpPacketBuf
                0x00000000080a3b80      0x640 net/built-in.o
 .bss.NetArpWaitPacketMAC
                0x00000000080a41c0        0x4 net/built-in.o
                0x00000000080a41c0                NetArpWaitPacketMAC
 .bss.BootpTry  0x00000000080a41c4        0x4 net/built-in.o
                0x00000000080a41c4                BootpTry
 .bss.bootp_timeout
                0x00000000080a41c8        0x4 net/built-in.o
                0x00000000080a41c8                bootp_timeout
 .bss.bootp_ids
                0x00000000080a41cc       0x10 net/built-in.o
                0x00000000080a41cc                bootp_ids
 .bss.bootp_num_ids
                0x00000000080a41dc        0x4 net/built-in.o
                0x00000000080a41dc                bootp_num_ids
 .bss.bootp_start
                0x00000000080a41e0        0x4 net/built-in.o
                0x00000000080a41e0                bootp_start
 .bss.first_failed.7895
                0x00000000080a41e4        0x4 net/built-in.o
 .bss.env_changed_id.7901
                0x00000000080a41e8        0x4 net/built-in.o
 .bss.eth_current
                0x00000000080a41ec        0x4 net/built-in.o
                0x00000000080a41ec                eth_current
 .bss.act.7900  0x00000000080a41f0        0x4 net/built-in.o
 .bss.eth_devices
                0x00000000080a41f4        0x4 net/built-in.o
 .bss.index.7848
                0x00000000080a41f8        0x4 net/built-in.o
 .bss.NetOurEther
                0x00000000080a41fc        0x6 net/built-in.o
                0x00000000080a41fc                NetOurEther
 *fill*         0x00000000080a4202        0x2 
 .bss.NetServerIP
                0x00000000080a4204        0x4 net/built-in.o
                0x00000000080a4204                NetServerIP
 .bss.NetRestarted
                0x00000000080a4208        0x4 net/built-in.o
 .bss.net_state
                0x00000000080a420c        0x4 net/built-in.o
                0x00000000080a420c                net_state
 .bss.NetRxPackets
                0x00000000080a4210       0x10 net/built-in.o
                0x00000000080a4210                NetRxPackets
 .bss.NetBootFileSize
                0x00000000080a4220        0x2 net/built-in.o
                0x00000000080a4220                NetBootFileSize
 .bss.NetEtherNullAddr
                0x00000000080a4222        0x6 net/built-in.o
                0x00000000080a4222                NetEtherNullAddr
 .bss.NetRxPacket
                0x00000000080a4228        0x4 net/built-in.o
                0x00000000080a4228                NetRxPacket
 .bss.udp_packet_handler
                0x00000000080a422c        0x4 net/built-in.o
 .bss.NetDevExists
                0x00000000080a4230        0x4 net/built-in.o
 .bss.timeStart
                0x00000000080a4234        0x4 net/built-in.o
 .bss.timeHandler
                0x00000000080a4238        0x4 net/built-in.o
 .bss.NetTryCount
                0x00000000080a423c        0x4 net/built-in.o
 .bss.NetOurDNSIP
                0x00000000080a4240        0x4 net/built-in.o
                0x00000000080a4240                NetOurDNSIP
 .bss.NetOurSubnetMask
                0x00000000080a4244        0x4 net/built-in.o
                0x00000000080a4244                NetOurSubnetMask
 .bss.NetTxPacket
                0x00000000080a4248        0x4 net/built-in.o
                0x00000000080a4248                NetTxPacket
 .bss.NetBootFileXferSize
                0x00000000080a424c        0x4 net/built-in.o
                0x00000000080a424c                NetBootFileXferSize
 .bss.NetOurIP  0x00000000080a4250        0x4 net/built-in.o
                0x00000000080a4250                NetOurIP
 .bss.NetOurNISDomain
                0x00000000080a4254       0x20 net/built-in.o
                0x00000000080a4254                NetOurNISDomain
 .bss.NetIPID   0x00000000080a4274        0x4 net/built-in.o
                0x00000000080a4274                NetIPID
 .bss.NetOurGatewayIP
                0x00000000080a4278        0x4 net/built-in.o
                0x00000000080a4278                NetOurGatewayIP
 .bss.arp_packet_handler
                0x00000000080a427c        0x4 net/built-in.o
 .bss.NetOurHostName
                0x00000000080a4280       0x20 net/built-in.o
                0x00000000080a4280                NetOurHostName
 .bss.NetRestartWrap
                0x00000000080a42a0        0x4 net/built-in.o
                0x00000000080a42a0                NetRestartWrap
 .bss.NetRxPacketLen
                0x00000000080a42a4        0x4 net/built-in.o
                0x00000000080a42a4                NetRxPacketLen
 .bss.BootFile  0x00000000080a42a8       0x80 net/built-in.o
                0x00000000080a42a8                BootFile
 .bss.timeDelta
                0x00000000080a4328        0x4 net/built-in.o
 .bss.NetServerEther
                0x00000000080a432c        0x6 net/built-in.o
                0x00000000080a432c                NetServerEther
 .bss.PktBuf    0x00000000080a4332     0x1e40 net/built-in.o
 .bss.NetOurRootPath
                0x00000000080a6172       0x40 net/built-in.o
                0x00000000080a6172                NetOurRootPath
 *fill*         0x00000000080a61b2        0x2 
 .bss.env_changed_id.7829
                0x00000000080a61b4        0x4 net/built-in.o
 .bss.NetPingIP
                0x00000000080a61b8        0x4 net/built-in.o
                0x00000000080a61b8                NetPingIP
 .bss.PingSeqNo
                0x00000000080a61bc        0x2 net/built-in.o
 *fill*         0x00000000080a61be        0x2 
 .bss.time_start
                0x00000000080a61c0        0x4 net/built-in.o
 .bss.TftpTimeoutCount
                0x00000000080a61c4        0x4 net/built-in.o
 .bss.TftpBlockWrap
                0x00000000080a61c8        0x4 net/built-in.o
 .bss.TftpBlock
                0x00000000080a61cc        0x4 net/built-in.o
 .bss.TftpOurPort
                0x00000000080a61d0        0x4 net/built-in.o
 .bss.TftpRemoteIP
                0x00000000080a61d4        0x4 net/built-in.o
 .bss.TftpState
                0x00000000080a61d8        0x4 net/built-in.o
 .bss.TftpRemotePort
                0x00000000080a61dc        0x4 net/built-in.o
 .bss.default_filename
                0x00000000080a61e0        0xd net/built-in.o
 .bss.tftp_filename
                0x00000000080a61ed       0x80 net/built-in.o
 *fill*         0x00000000080a626d        0x3 
 .bss.TftpBlockWrapOffset
                0x00000000080a6270        0x4 net/built-in.o
 .bss.TftpLastBlock
                0x00000000080a6274        0x4 net/built-in.o
                0x00000000080a6278                . = ALIGN (0x4)
                0x00000000080a6278                __bss_limit = .

.bss_end        0x00000000080a6278        0x0
 *(.__bss_end)
 .__bss_end     0x00000000080a6278        0x0 arch/arm/lib/built-in.o
                0x00000000080a6278                __bss_end

.dynsym         0x0000000008068c40       0x60
 *(.dynsym)
 .dynsym        0x0000000008068c40       0x60 arch/arm/cpu/armv7/start.o

.dynbss         0x0000000008068ca0        0x0
 *(.dynbss)
 .dynbss        0x0000000008068ca0        0x0 arch/arm/cpu/armv7/start.o

.dynstr         0x0000000008068ca0       0x2a
 *(.dynstr*)
 .dynstr        0x0000000008068ca0       0x2a arch/arm/cpu/armv7/start.o

.dynamic        0x0000000008068ccc       0x80
 *(.dynamic*)
 .dynamic       0x0000000008068ccc       0x80 arch/arm/cpu/armv7/start.o
                0x0000000008068ccc                _DYNAMIC

.plt            0x0000000008068d4c        0x0
 *(.plt*)
 .plt           0x0000000008068d4c        0x0 arch/arm/cpu/armv7/start.o

.interp         0x0000000008068d4c       0x11
 *(.interp*)
 .interp        0x0000000008068d4c       0x11 arch/arm/cpu/armv7/start.o

.gnu.hash
 *(.gnu.hash)

.gnu            0x0000000008068d60        0x0
 *(.gnu*)
 .gnu.version_d
                0x0000000008068d60        0x0 arch/arm/cpu/armv7/start.o
 .gnu.version   0x0000000008068d60        0x0 arch/arm/cpu/armv7/start.o
 .gnu.version_r
                0x0000000008068d60        0x0 arch/arm/cpu/armv7/start.o

.ARM.exidx
 *(.ARM.exidx*)

.gnu.linkonce.armexidx
 *(.gnu.linkonce.armexidx.*)
LOAD arch/arm/cpu/armv7/start.o
START GROUP
LOAD arch/arm/cpu/built-in.o
LOAD arch/arm/cpu/armv7/built-in.o
LOAD arch/arm/lib/built-in.o
LOAD board/actions/owl/built-in.o
LOAD common/built-in.o
LOAD disk/built-in.o
LOAD drivers/built-in.o
LOAD drivers/dma/built-in.o
LOAD drivers/gpio/built-in.o
LOAD drivers/i2c/built-in.o
LOAD drivers/mmc/built-in.o
LOAD drivers/mtd/built-in.o
LOAD drivers/mtd/onenand/built-in.o
LOAD drivers/mtd/spi/built-in.o
LOAD drivers/net/built-in.o
LOAD drivers/net/phy/built-in.o
LOAD drivers/pci/built-in.o
LOAD drivers/power/built-in.o
LOAD drivers/power/battery/built-in.o
LOAD drivers/power/fuel_gauge/built-in.o
LOAD drivers/power/mfd/built-in.o
LOAD drivers/power/pmic/built-in.o
LOAD drivers/serial/built-in.o
LOAD drivers/spi/built-in.o
LOAD drivers/usb/eth/built-in.o
LOAD drivers/usb/gadget/built-in.o
LOAD drivers/usb/host/built-in.o
LOAD drivers/usb/musb-new/built-in.o
LOAD drivers/usb/musb/built-in.o
LOAD drivers/usb/phy/built-in.o
LOAD drivers/usb/ulpi/built-in.o
LOAD fs/built-in.o
LOAD lib/built-in.o
LOAD net/built-in.o
LOAD test/built-in.o
LOAD test/dm/built-in.o
END GROUP
LOAD arch/arm/lib/eabi_compat.o
LOAD /usr/lib/gcc/arm-linux-gnueabihf/4.9/libgcc.a
OUTPUT(u-boot elf32-littlearm)

.ARM.attributes
                0x0000000000000000       0x2b
 .ARM.attributes
                0x0000000000000000       0x1f arch/arm/cpu/armv7/start.o
 .ARM.attributes
                0x000000000000001f       0x2d arch/arm/cpu/armv7/built-in.o
 .ARM.attributes
                0x000000000000004c       0x2b arch/arm/lib/built-in.o
 .ARM.attributes
                0x0000000000000077       0x2d board/actions/owl/built-in.o
 .ARM.attributes
                0x00000000000000a4       0x2d common/built-in.o
 .ARM.attributes
                0x00000000000000d1       0x2d disk/built-in.o
 .ARM.attributes
                0x00000000000000fe       0x2d drivers/built-in.o
 .ARM.attributes
                0x000000000000012b       0x2d drivers/gpio/built-in.o
 .ARM.attributes
                0x0000000000000158       0x2d drivers/i2c/built-in.o
 .ARM.attributes
                0x0000000000000185       0x2d drivers/mmc/built-in.o
 .ARM.attributes
                0x00000000000001b2       0x2d drivers/net/built-in.o
 .ARM.attributes
                0x00000000000001df       0x2d drivers/power/built-in.o
 .ARM.attributes
                0x000000000000020c       0x2d drivers/serial/built-in.o
 .ARM.attributes
                0x0000000000000239       0x2d drivers/spi/built-in.o
 .ARM.attributes
                0x0000000000000266       0x2d drivers/usb/gadget/built-in.o
 .ARM.attributes
                0x0000000000000293       0x2d drivers/usb/host/built-in.o
 .ARM.attributes
                0x00000000000002c0       0x2d fs/built-in.o
 .ARM.attributes
                0x00000000000002ed       0x2d lib/built-in.o
 .ARM.attributes
                0x000000000000031a       0x2d net/built-in.o
 .ARM.attributes
                0x0000000000000347       0x2d arch/arm/lib/eabi_compat.o
 .ARM.attributes
                0x0000000000000374       0x21 /usr/lib/gcc/arm-linux-gnueabihf/4.9/libgcc.a(_udivsi3.o)
 .ARM.attributes
                0x0000000000000395       0x21 /usr/lib/gcc/arm-linux-gnueabihf/4.9/libgcc.a(_divsi3.o)
 .ARM.attributes
                0x00000000000003b6       0x21 /usr/lib/gcc/arm-linux-gnueabihf/4.9/libgcc.a(_lshrdi3.o)
 .ARM.attributes
                0x00000000000003d7       0x21 /usr/lib/gcc/arm-linux-gnueabihf/4.9/libgcc.a(_ashldi3.o)
 .ARM.attributes
                0x00000000000003f8       0x21 /usr/lib/gcc/arm-linux-gnueabihf/4.9/libgcc.a(_dvmd_lnx.o)

.comment        0x0000000000000000       0x17
 .comment       0x0000000000000000       0x17 arch/arm/cpu/armv7/built-in.o
                                        0x150 (size before relaxing)
 .comment       0x0000000000000017       0xc0 arch/arm/lib/built-in.o
 .comment       0x0000000000000017       0x90 board/actions/owl/built-in.o
 .comment       0x0000000000000017      0x5a0 common/built-in.o
 .comment       0x0000000000000017       0x48 disk/built-in.o
 .comment       0x0000000000000017      0x1c8 drivers/built-in.o
 .comment       0x0000000000000017       0x30 drivers/gpio/built-in.o
 .comment       0x0000000000000017       0x18 drivers/i2c/built-in.o
 .comment       0x0000000000000017       0x48 drivers/mmc/built-in.o
 .comment       0x0000000000000017       0x18 drivers/net/built-in.o
 .comment       0x0000000000000017       0x30 drivers/power/built-in.o
 .comment       0x0000000000000017       0x30 drivers/serial/built-in.o
 .comment       0x0000000000000017       0x30 drivers/spi/built-in.o
 .comment       0x0000000000000017       0xa8 drivers/usb/gadget/built-in.o
 .comment       0x0000000000000017       0x60 drivers/usb/host/built-in.o
 .comment       0x0000000000000017       0x90 fs/built-in.o
 .comment       0x0000000000000017      0x3a8 lib/built-in.o
 .comment       0x0000000000000017       0xa8 net/built-in.o
 .comment       0x0000000000000017       0x18 arch/arm/lib/eabi_compat.o

.note.GNU-stack
                0x0000000000000000        0x0
 .note.GNU-stack
                0x0000000000000000        0x0 arch/arm/cpu/armv7/built-in.o
 .note.GNU-stack
                0x0000000000000000        0x0 arch/arm/lib/built-in.o
 .note.GNU-stack
                0x0000000000000000        0x0 board/actions/owl/built-in.o
 .note.GNU-stack
                0x0000000000000000        0x0 common/built-in.o
 .note.GNU-stack
                0x0000000000000000        0x0 disk/built-in.o
 .note.GNU-stack
                0x0000000000000000        0x0 drivers/built-in.o
 .note.GNU-stack
                0x0000000000000000        0x0 drivers/gpio/built-in.o
 .note.GNU-stack
                0x0000000000000000        0x0 drivers/i2c/built-in.o
 .note.GNU-stack
                0x0000000000000000        0x0 drivers/mmc/built-in.o
 .note.GNU-stack
                0x0000000000000000        0x0 drivers/net/built-in.o
 .note.GNU-stack
                0x0000000000000000        0x0 drivers/power/built-in.o
 .note.GNU-stack
                0x0000000000000000        0x0 drivers/serial/built-in.o
 .note.GNU-stack
                0x0000000000000000        0x0 drivers/spi/built-in.o
 .note.GNU-stack
                0x0000000000000000        0x0 drivers/usb/gadget/built-in.o
 .note.GNU-stack
                0x0000000000000000        0x0 drivers/usb/host/built-in.o
 .note.GNU-stack
                0x0000000000000000        0x0 fs/built-in.o
 .note.GNU-stack
                0x0000000000000000        0x0 lib/built-in.o
 .note.GNU-stack
                0x0000000000000000        0x0 net/built-in.o
 .note.GNU-stack
                0x0000000000000000        0x0 arch/arm/lib/eabi_compat.o
 .note.GNU-stack
                0x0000000000000000        0x0 /usr/lib/gcc/arm-linux-gnueabihf/4.9/libgcc.a(_udivsi3.o)
 .note.GNU-stack
                0x0000000000000000        0x0 /usr/lib/gcc/arm-linux-gnueabihf/4.9/libgcc.a(_divsi3.o)
 .note.GNU-stack
                0x0000000000000000        0x0 /usr/lib/gcc/arm-linux-gnueabihf/4.9/libgcc.a(_lshrdi3.o)
 .note.GNU-stack
                0x0000000000000000        0x0 /usr/lib/gcc/arm-linux-gnueabihf/4.9/libgcc.a(_ashldi3.o)
 .note.GNU-stack
                0x0000000000000000        0x0 /usr/lib/gcc/arm-linux-gnueabihf/4.9/libgcc.a(_dvmd_lnx.o)

.debug_line     0x0000000000000000    0x2978b
 .debug_line    0x0000000000000000       0xac arch/arm/cpu/armv7/start.o
 .debug_line    0x00000000000000ac     0x25ba arch/arm/cpu/armv7/built-in.o
 .debug_line    0x0000000000002666     0x1216 arch/arm/lib/built-in.o
 .debug_line    0x000000000000387c      0xd93 board/actions/owl/built-in.o
 .debug_line    0x000000000000460f     0xd0bd common/built-in.o
 .debug_line    0x00000000000116cc      0xee7 disk/built-in.o
 .debug_line    0x00000000000125b3     0x4420 drivers/built-in.o
 .debug_line    0x00000000000169d3      0x5f1 drivers/gpio/built-in.o
 .debug_line    0x0000000000016fc4      0x3f2 drivers/i2c/built-in.o
 .debug_line    0x00000000000173b6     0x1320 drivers/mmc/built-in.o
 .debug_line    0x00000000000186d6      0x469 drivers/net/built-in.o
 .debug_line    0x0000000000018b3f      0x51e drivers/power/built-in.o
 .debug_line    0x000000000001905d      0x6e0 drivers/serial/built-in.o
 .debug_line    0x000000000001973d      0x46a drivers/spi/built-in.o
 .debug_line    0x0000000000019ba7     0x41cd drivers/usb/gadget/built-in.o
 .debug_line    0x000000000001dd74     0x14de drivers/usb/host/built-in.o
 .debug_line    0x000000000001f252     0x1edf fs/built-in.o
 .debug_line    0x0000000000021131     0x6a93 lib/built-in.o
 .debug_line    0x0000000000027bc4     0x19e9 net/built-in.o
 .debug_line    0x00000000000295ad      0x1de arch/arm/lib/eabi_compat.o

.debug_info     0x0000000000000000    0xcc846
 .debug_info    0x0000000000000000       0x99 arch/arm/cpu/armv7/start.o
 .debug_info    0x0000000000000099     0xcafd arch/arm/cpu/armv7/built-in.o
 .debug_info    0x000000000000cb96     0x4395 arch/arm/lib/built-in.o
 .debug_info    0x0000000000010f2b     0x3858 board/actions/owl/built-in.o
 .debug_info    0x0000000000014783    0x41f35 common/built-in.o
 .debug_info    0x00000000000566b8     0x46ae disk/built-in.o
 .debug_info    0x000000000005ad66    0x17f6d drivers/built-in.o
 .debug_info    0x0000000000072cd3     0x170c drivers/gpio/built-in.o
 .debug_info    0x00000000000743df     0x1716 drivers/i2c/built-in.o
 .debug_info    0x0000000000075af5     0x6e78 drivers/mmc/built-in.o
 .debug_info    0x000000000007c96d     0x2285 drivers/net/built-in.o
 .debug_info    0x000000000007ebf2     0x15a5 drivers/power/built-in.o
 .debug_info    0x0000000000080197     0x1ce4 drivers/serial/built-in.o
 .debug_info    0x0000000000081e7b     0x100d drivers/spi/built-in.o
 .debug_info    0x0000000000082e88    0x16ea6 drivers/usb/gadget/built-in.o
 .debug_info    0x0000000000099d2e     0x9993 drivers/usb/host/built-in.o
 .debug_info    0x00000000000a36c1     0xa3fd fs/built-in.o
 .debug_info    0x00000000000adabe    0x163f1 lib/built-in.o
 .debug_info    0x00000000000c3eaf     0x84c0 net/built-in.o
 .debug_info    0x00000000000cc36f      0x4d7 arch/arm/lib/eabi_compat.o

.debug_abbrev   0x0000000000000000    0x21637
 .debug_abbrev  0x0000000000000000       0x14 arch/arm/cpu/armv7/start.o
 .debug_abbrev  0x0000000000000014     0x21a5 arch/arm/cpu/armv7/built-in.o
 .debug_abbrev  0x00000000000021b9      0xfdb arch/arm/lib/built-in.o
 .debug_abbrev  0x0000000000003194      0xc22 board/actions/owl/built-in.o
 .debug_abbrev  0x0000000000003db6     0xb139 common/built-in.o
 .debug_abbrev  0x000000000000eeef      0xc75 disk/built-in.o
 .debug_abbrev  0x000000000000fb64     0x3ace drivers/built-in.o
 .debug_abbrev  0x0000000000013632      0x57b drivers/gpio/built-in.o
 .debug_abbrev  0x0000000000013bad      0x411 drivers/i2c/built-in.o
 .debug_abbrev  0x0000000000013fbe      0xdca drivers/mmc/built-in.o
 .debug_abbrev  0x0000000000014d88      0x4e6 drivers/net/built-in.o
 .debug_abbrev  0x000000000001526e      0x54b drivers/power/built-in.o
 .debug_abbrev  0x00000000000157b9      0x7cd drivers/serial/built-in.o
 .debug_abbrev  0x0000000000015f86      0x421 drivers/spi/built-in.o
 .debug_abbrev  0x00000000000163a7     0x2083 drivers/usb/gadget/built-in.o
 .debug_abbrev  0x000000000001842a     0x129d drivers/usb/host/built-in.o
 .debug_abbrev  0x00000000000196c7     0x1596 fs/built-in.o
 .debug_abbrev  0x000000000001ac5d     0x4e9b lib/built-in.o
 .debug_abbrev  0x000000000001faf8     0x1987 net/built-in.o
 .debug_abbrev  0x000000000002147f      0x1b8 arch/arm/lib/eabi_compat.o

.debug_aranges  0x0000000000000000     0x4468
 .debug_aranges
                0x0000000000000000       0x20 arch/arm/cpu/armv7/start.o
 .debug_aranges
                0x0000000000000020      0x400 arch/arm/cpu/armv7/built-in.o
 .debug_aranges
                0x0000000000000420      0x258 arch/arm/lib/built-in.o
 .debug_aranges
                0x0000000000000678      0x148 board/actions/owl/built-in.o
 .debug_aranges
                0x00000000000007c0     0x15e0 common/built-in.o
 .debug_aranges
                0x0000000000001da0      0x140 disk/built-in.o
 .debug_aranges
                0x0000000000001ee0      0x6c0 drivers/built-in.o
 .debug_aranges
                0x00000000000025a0       0xc8 drivers/gpio/built-in.o
 .debug_aranges
                0x0000000000002668       0x68 drivers/i2c/built-in.o
 .debug_aranges
                0x00000000000026d0      0x1b8 drivers/mmc/built-in.o
 .debug_aranges
                0x0000000000002888       0x70 drivers/net/built-in.o
 .debug_aranges
                0x00000000000028f8       0x98 drivers/power/built-in.o
 .debug_aranges
                0x0000000000002990      0x120 drivers/serial/built-in.o
 .debug_aranges
                0x0000000000002ab0       0xa8 drivers/spi/built-in.o
 .debug_aranges
                0x0000000000002b58      0x568 drivers/usb/gadget/built-in.o
 .debug_aranges
                0x00000000000030c0      0x1a8 drivers/usb/host/built-in.o
 .debug_aranges
                0x0000000000003268      0x330 fs/built-in.o
 .debug_aranges
                0x0000000000003598      0xbe0 lib/built-in.o
 .debug_aranges
                0x0000000000004178      0x2b0 net/built-in.o
 .debug_aranges
                0x0000000000004428       0x40 arch/arm/lib/eabi_compat.o

.debug_frame    0x0000000000000000     0xbca8
 .debug_frame   0x0000000000000000      0x958 arch/arm/cpu/armv7/built-in.o
 .debug_frame   0x0000000000000958      0x3c4 arch/arm/lib/built-in.o
 .debug_frame   0x0000000000000d1c      0x2c0 board/actions/owl/built-in.o
 .debug_frame   0x0000000000000fdc     0x3df8 common/built-in.o
 .debug_frame   0x0000000000004dd4      0x480 disk/built-in.o
 .debug_frame   0x0000000000005254     0x11b8 drivers/built-in.o
 .debug_frame   0x000000000000640c      0x1a0 drivers/gpio/built-in.o
 .debug_frame   0x00000000000065ac      0x114 drivers/i2c/built-in.o
 .debug_frame   0x00000000000066c0      0x57c drivers/mmc/built-in.o
 .debug_frame   0x0000000000006c3c      0x140 drivers/net/built-in.o
 .debug_frame   0x0000000000006d7c      0x178 drivers/power/built-in.o
 .debug_frame   0x0000000000006ef4      0x2cc drivers/serial/built-in.o
 .debug_frame   0x00000000000071c0      0x170 drivers/spi/built-in.o
 .debug_frame   0x0000000000007330     0x10f8 drivers/usb/gadget/built-in.o
 .debug_frame   0x0000000000008428      0x534 drivers/usb/host/built-in.o
 .debug_frame   0x000000000000895c      0xa98 fs/built-in.o
 .debug_frame   0x00000000000093f4     0x20ac lib/built-in.o
 .debug_frame   0x000000000000b4a0      0x7a0 net/built-in.o
 .debug_frame   0x000000000000bc40       0x68 arch/arm/lib/eabi_compat.o

.debug_str      0x0000000000000000    0x190a6
 .debug_str     0x0000000000000000     0x4531 arch/arm/cpu/armv7/built-in.o
                                       0x8e3e (size before relaxing)
 .debug_str     0x0000000000004531     0x138d arch/arm/lib/built-in.o
                                       0x38ec (size before relaxing)
 .debug_str     0x00000000000058be      0x918 board/actions/owl/built-in.o
                                       0x3098 (size before relaxing)
 .debug_str     0x00000000000061d6     0x6a28 common/built-in.o
                                      0x25ada (size before relaxing)
 .debug_str     0x000000000000cbfe      0x716 disk/built-in.o
                                       0x1bc5 (size before relaxing)
 .debug_str     0x000000000000d314     0x2be6 drivers/built-in.o
                                       0xcced (size before relaxing)
 .debug_str     0x000000000000fefa      0x242 drivers/gpio/built-in.o
                                       0x1533 (size before relaxing)
 .debug_str     0x000000000001013c      0x1c0 drivers/i2c/built-in.o
                                        0xd86 (size before relaxing)
 .debug_str     0x00000000000102fc      0x73c drivers/mmc/built-in.o
                                       0x2100 (size before relaxing)
 .debug_str     0x0000000000010a38      0x397 drivers/net/built-in.o
                                        0xb14 (size before relaxing)
 .debug_str     0x0000000000010dcf      0x312 drivers/power/built-in.o
                                        0xf22 (size before relaxing)
 .debug_str     0x00000000000110e1      0x33f drivers/serial/built-in.o
                                        0xfd6 (size before relaxing)
 .debug_str     0x0000000000011420      0x155 drivers/spi/built-in.o
                                        0xa57 (size before relaxing)
 .debug_str     0x0000000000011575     0x2b74 drivers/usb/gadget/built-in.o
                                       0x6e1a (size before relaxing)
 .debug_str     0x00000000000140e9     0x119e drivers/usb/host/built-in.o
                                       0x4f16 (size before relaxing)
 .debug_str     0x0000000000015287     0x11fc fs/built-in.o
                                       0x3fec (size before relaxing)
 .debug_str     0x0000000000016483     0x1cef lib/built-in.o
                                       0xc1f9 (size before relaxing)
 .debug_str     0x0000000000018172      0xe9a net/built-in.o
                                       0x56a5 (size before relaxing)
 .debug_str     0x000000000001900c       0x9a arch/arm/lib/eabi_compat.o
                                        0x495 (size before relaxing)

.debug_loc      0x0000000000000000    0x6edc1
 .debug_loc     0x0000000000000000     0x4218 arch/arm/cpu/armv7/built-in.o
 .debug_loc     0x0000000000004218      0x8fa arch/arm/lib/built-in.o
 .debug_loc     0x0000000000004b12      0x66e board/actions/owl/built-in.o
 .debug_loc     0x0000000000005180    0x1c346 common/built-in.o
 .debug_loc     0x00000000000214c6     0x1f3b disk/built-in.o
 .debug_loc     0x0000000000023401     0xbe52 drivers/built-in.o
 .debug_loc     0x000000000002f253      0x89c drivers/gpio/built-in.o
 .debug_loc     0x000000000002faef      0xca2 drivers/i2c/built-in.o
 .debug_loc     0x0000000000030791     0x356d drivers/mmc/built-in.o
 .debug_loc     0x0000000000033cfe      0xb17 drivers/net/built-in.o
 .debug_loc     0x0000000000034815      0x517 drivers/power/built-in.o
 .debug_loc     0x0000000000034d2c      0x7f6 drivers/serial/built-in.o
 .debug_loc     0x0000000000035522      0x77a drivers/spi/built-in.o
 .debug_loc     0x0000000000035c9c     0xf4af drivers/usb/gadget/built-in.o
 .debug_loc     0x000000000004514b     0x3c0e drivers/usb/host/built-in.o
 .debug_loc     0x0000000000048d59     0x7161 fs/built-in.o
 .debug_loc     0x000000000004feba    0x1beb9 lib/built-in.o
 .debug_loc     0x000000000006bd73     0x2f46 net/built-in.o
 .debug_loc     0x000000000006ecb9      0x108 arch/arm/lib/eabi_compat.o

.debug_ranges   0x0000000000000000     0x89b8
 .debug_ranges  0x0000000000000000      0xa18 arch/arm/cpu/armv7/built-in.o
 .debug_ranges  0x0000000000000a18      0x170 arch/arm/lib/built-in.o
 .debug_ranges  0x0000000000000b88      0x138 board/actions/owl/built-in.o
 .debug_ranges  0x0000000000000cc0     0x2088 common/built-in.o
 .debug_ranges  0x0000000000002d48      0x300 disk/built-in.o
 .debug_ranges  0x0000000000003048      0xf98 drivers/built-in.o
 .debug_ranges  0x0000000000003fe0       0xc0 drivers/gpio/built-in.o
 .debug_ranges  0x00000000000040a0       0xf0 drivers/i2c/built-in.o
 .debug_ranges  0x0000000000004190      0x5b8 drivers/mmc/built-in.o
 .debug_ranges  0x0000000000004748      0x2a0 drivers/net/built-in.o
 .debug_ranges  0x00000000000049e8       0x78 drivers/power/built-in.o
 .debug_ranges  0x0000000000004a60      0x1b0 drivers/serial/built-in.o
 .debug_ranges  0x0000000000004c10       0xb8 drivers/spi/built-in.o
 .debug_ranges  0x0000000000004cc8     0x1928 drivers/usb/gadget/built-in.o
 .debug_ranges  0x00000000000065f0      0x5a0 drivers/usb/host/built-in.o
 .debug_ranges  0x0000000000006b90      0x708 fs/built-in.o
 .debug_ranges  0x0000000000007298     0x1190 lib/built-in.o
 .debug_ranges  0x0000000000008428      0x560 net/built-in.o
 .debug_ranges  0x0000000000008988       0x30 arch/arm/lib/eabi_compat.o
